	.cpu cortex-m4
	.eabi_attribute 27, 1
	.eabi_attribute 28, 1
	.eabi_attribute 20, 1
	.eabi_attribute 21, 1
	.eabi_attribute 23, 3
	.eabi_attribute 24, 1
	.eabi_attribute 25, 1
	.eabi_attribute 26, 1
	.eabi_attribute 30, 6
	.eabi_attribute 34, 1
	.eabi_attribute 18, 4
	.file	"LoRaMac.c"
	.text
.Ltext0:
	.section	.rodata.LoRaMacMaxEirpTable,"a"
	.align	2
	.type	LoRaMacMaxEirpTable, %object
	.size	LoRaMacMaxEirpTable, 16
LoRaMacMaxEirpTable:
	.ascii	"\010\012\014\015\016\020\022\024\025\030\032\033\035"
	.ascii	"\036!$"
	.section	.bss.MacCtx,"aw",%nobits
	.align	2
	.type	MacCtx, %object
	.size	MacCtx, 1160
MacCtx:
	.space	1160
	.section	.bss.NvmMacCtx,"aw",%nobits
	.align	2
	.type	NvmMacCtx, %object
	.size	NvmMacCtx, 480
NvmMacCtx:
	.space	480
	.global	Contexts
	.section	.bss.Contexts,"aw",%nobits
	.align	2
	.type	Contexts, %object
	.size	Contexts, 56
Contexts:
	.space	56
	.global	LoRaMacRadioEvents
	.section	.bss.LoRaMacRadioEvents,"aw",%nobits
	.align	2
	.type	LoRaMacRadioEvents, %object
	.size	LoRaMacRadioEvents, 4
LoRaMacRadioEvents:
	.space	4
	.global	TxDoneParams
	.section	.bss.TxDoneParams,"aw",%nobits
	.align	2
	.type	TxDoneParams, %object
	.size	TxDoneParams, 4
TxDoneParams:
	.space	4
	.global	RxDoneParams
	.section	.bss.RxDoneParams,"aw",%nobits
	.align	2
	.type	RxDoneParams, %object
	.size	RxDoneParams, 16
RxDoneParams:
	.space	16
	.section	.text.OnRadioTxDone,"ax",%progbits
	.align	1
	.syntax unified
	.thumb
	.thumb_func
	.fpu fpv4-sp-d16
	.type	OnRadioTxDone, %function
OnRadioTxDone:
.LFB0:
	.file 1 "C:\\SES\\ISP4520-examples-master\\ISP4520-examples-master\\src\\lora\\mac\\LoRaMac.c"
	.loc 1 794 1
	@ args = 0, pretend = 0, frame = 8
	@ frame_needed = 0, uses_anonymous_args = 0
	push	{r4, lr}
.LCFI0:
	sub	sp, sp, #8
.LCFI1:
	.loc 1 795 28
	bl	TimerGetCurrentTime
	mov	r3, r0
	.loc 1 795 26
	ldr	r2, .L4
	str	r3, [r2]
	.loc 1 796 28
	ldr	r4, .L4+4
	mov	r3, sp
	mov	r0, r3
	bl	SysTimeGet
	add	r3, r4, #824
	mov	r2, sp
	ldm	r2, {r0, r1}
	stm	r3, {r0, r1}
	.loc 1 798 38
	ldr	r2, .L4+8
	ldrb	r3, [r2]
	orr	r3, r3, #16
	strb	r3, [r2]
	.loc 1 800 17
	ldr	r3, .L4+4
	ldr	r3, [r3, #840]
	.loc 1 800 7
	cmp	r3, #0
	beq	.L3
	.loc 1 800 52 discriminator 1
	ldr	r3, .L4+4
	ldr	r3, [r3, #840]
	.loc 1 800 65 discriminator 1
	ldr	r3, [r3, #12]
	.loc 1 800 41 discriminator 1
	cmp	r3, #0
	beq	.L3
	.loc 1 802 15
	ldr	r3, .L4+4
	ldr	r3, [r3, #840]
	.loc 1 802 28
	ldr	r3, [r3, #12]
	.loc 1 802 9
	blx	r3
.LVL0:
.L3:
	.loc 1 804 1
	nop
	add	sp, sp, #8
.LCFI2:
	@ sp needed
	pop	{r4, pc}
.L5:
	.align	2
.L4:
	.word	TxDoneParams
	.word	MacCtx
	.word	LoRaMacRadioEvents
.LFE0:
	.size	OnRadioTxDone, .-OnRadioTxDone
	.section	.text.OnRadioRxDone,"ax",%progbits
	.align	1
	.syntax unified
	.thumb
	.thumb_func
	.fpu fpv4-sp-d16
	.type	OnRadioRxDone, %function
OnRadioRxDone:
.LFB1:
	.loc 1 807 1
	@ args = 0, pretend = 0, frame = 16
	@ frame_needed = 0, uses_anonymous_args = 0
	push	{lr}
.LCFI3:
	sub	sp, sp, #20
.LCFI4:
	str	r0, [sp, #12]
	mov	r0, r1
	mov	r1, r2
	mov	r2, r3
	mov	r3, r0	@ movhi
	strh	r3, [sp, #10]	@ movhi
	mov	r3, r1	@ movhi
	strh	r3, [sp, #8]	@ movhi
	mov	r3, r2
	strb	r3, [sp, #7]
	.loc 1 808 31
	bl	TimerGetCurrentTime
	mov	r3, r0
	.loc 1 808 29
	ldr	r2, .L9
	str	r3, [r2]
	.loc 1 809 26
	ldr	r2, .L9
	ldr	r3, [sp, #12]
	str	r3, [r2, #4]
	.loc 1 810 23
	ldr	r2, .L9
	ldrh	r3, [sp, #10]	@ movhi
	strh	r3, [r2, #8]	@ movhi
	.loc 1 811 23
	ldr	r2, .L9
	ldrh	r3, [sp, #8]	@ movhi
	strh	r3, [r2, #10]	@ movhi
	.loc 1 812 22
	ldr	r2, .L9
	ldrb	r3, [sp, #7]
	strb	r3, [r2, #12]
	.loc 1 814 38
	ldr	r2, .L9+4
	ldrb	r3, [r2]
	orr	r3, r3, #8
	strb	r3, [r2]
	.loc 1 816 17
	ldr	r3, .L9+8
	ldr	r3, [r3, #840]
	.loc 1 816 7
	cmp	r3, #0
	beq	.L8
	.loc 1 816 52 discriminator 1
	ldr	r3, .L9+8
	ldr	r3, [r3, #840]
	.loc 1 816 65 discriminator 1
	ldr	r3, [r3, #12]
	.loc 1 816 41 discriminator 1
	cmp	r3, #0
	beq	.L8
	.loc 1 818 15
	ldr	r3, .L9+8
	ldr	r3, [r3, #840]
	.loc 1 818 28
	ldr	r3, [r3, #12]
	.loc 1 818 9
	blx	r3
.LVL1:
.L8:
	.loc 1 820 1
	nop
	add	sp, sp, #20
.LCFI5:
	@ sp needed
	ldr	pc, [sp], #4
.L10:
	.align	2
.L9:
	.word	RxDoneParams
	.word	LoRaMacRadioEvents
	.word	MacCtx
.LFE1:
	.size	OnRadioRxDone, .-OnRadioRxDone
	.section	.text.OnRadioTxTimeout,"ax",%progbits
	.align	1
	.syntax unified
	.thumb
	.thumb_func
	.fpu fpv4-sp-d16
	.type	OnRadioTxTimeout, %function
OnRadioTxTimeout:
.LFB2:
	.loc 1 823 1
	@ args = 0, pretend = 0, frame = 0
	@ frame_needed = 0, uses_anonymous_args = 0
	push	{r3, lr}
.LCFI6:
	.loc 1 824 41
	ldr	r2, .L14
	ldrb	r3, [r2]
	orr	r3, r3, #4
	strb	r3, [r2]
	.loc 1 826 17
	ldr	r3, .L14+4
	ldr	r3, [r3, #840]
	.loc 1 826 7
	cmp	r3, #0
	beq	.L13
	.loc 1 826 52 discriminator 1
	ldr	r3, .L14+4
	ldr	r3, [r3, #840]
	.loc 1 826 65 discriminator 1
	ldr	r3, [r3, #12]
	.loc 1 826 41 discriminator 1
	cmp	r3, #0
	beq	.L13
	.loc 1 828 15
	ldr	r3, .L14+4
	ldr	r3, [r3, #840]
	.loc 1 828 28
	ldr	r3, [r3, #12]
	.loc 1 828 9
	blx	r3
.LVL2:
.L13:
	.loc 1 830 1
	nop
	pop	{r3, pc}
.L15:
	.align	2
.L14:
	.word	LoRaMacRadioEvents
	.word	MacCtx
.LFE2:
	.size	OnRadioTxTimeout, .-OnRadioTxTimeout
	.section	.text.OnRadioRxError,"ax",%progbits
	.align	1
	.syntax unified
	.thumb
	.thumb_func
	.fpu fpv4-sp-d16
	.type	OnRadioRxError, %function
OnRadioRxError:
.LFB3:
	.loc 1 833 1
	@ args = 0, pretend = 0, frame = 0
	@ frame_needed = 0, uses_anonymous_args = 0
	push	{r3, lr}
.LCFI7:
	.loc 1 834 39
	ldr	r2, .L19
	ldrb	r3, [r2]
	orr	r3, r3, #2
	strb	r3, [r2]
	.loc 1 836 17
	ldr	r3, .L19+4
	ldr	r3, [r3, #840]
	.loc 1 836 7
	cmp	r3, #0
	beq	.L18
	.loc 1 836 52 discriminator 1
	ldr	r3, .L19+4
	ldr	r3, [r3, #840]
	.loc 1 836 65 discriminator 1
	ldr	r3, [r3, #12]
	.loc 1 836 41 discriminator 1
	cmp	r3, #0
	beq	.L18
	.loc 1 838 15
	ldr	r3, .L19+4
	ldr	r3, [r3, #840]
	.loc 1 838 28
	ldr	r3, [r3, #12]
	.loc 1 838 9
	blx	r3
.LVL3:
.L18:
	.loc 1 840 1
	nop
	pop	{r3, pc}
.L20:
	.align	2
.L19:
	.word	LoRaMacRadioEvents
	.word	MacCtx
.LFE3:
	.size	OnRadioRxError, .-OnRadioRxError
	.section	.text.OnRadioRxTimeout,"ax",%progbits
	.align	1
	.syntax unified
	.thumb
	.thumb_func
	.fpu fpv4-sp-d16
	.type	OnRadioRxTimeout, %function
OnRadioRxTimeout:
.LFB4:
	.loc 1 843 1
	@ args = 0, pretend = 0, frame = 0
	@ frame_needed = 0, uses_anonymous_args = 0
	push	{r3, lr}
.LCFI8:
	.loc 1 844 41
	ldr	r2, .L24
	ldrb	r3, [r2]
	orr	r3, r3, #1
	strb	r3, [r2]
	.loc 1 846 17
	ldr	r3, .L24+4
	ldr	r3, [r3, #840]
	.loc 1 846 7
	cmp	r3, #0
	beq	.L23
	.loc 1 846 52 discriminator 1
	ldr	r3, .L24+4
	ldr	r3, [r3, #840]
	.loc 1 846 65 discriminator 1
	ldr	r3, [r3, #12]
	.loc 1 846 41 discriminator 1
	cmp	r3, #0
	beq	.L23
	.loc 1 848 15
	ldr	r3, .L24+4
	ldr	r3, [r3, #840]
	.loc 1 848 28
	ldr	r3, [r3, #12]
	.loc 1 848 9
	blx	r3
.LVL4:
.L23:
	.loc 1 850 1
	nop
	pop	{r3, pc}
.L25:
	.align	2
.L24:
	.word	LoRaMacRadioEvents
	.word	MacCtx
.LFE4:
	.size	OnRadioRxTimeout, .-OnRadioRxTimeout
	.section	.text.UpdateRxSlotIdleState,"ax",%progbits
	.align	1
	.syntax unified
	.thumb
	.thumb_func
	.fpu fpv4-sp-d16
	.type	UpdateRxSlotIdleState, %function
UpdateRxSlotIdleState:
.LFB5:
	.loc 1 853 1
	@ args = 0, pretend = 0, frame = 0
	@ frame_needed = 0, uses_anonymous_args = 0
	@ link register save eliminated.
	.loc 1 854 15
	ldr	r3, .L30
	ldr	r3, [r3, #1156]
	.loc 1 854 22
	ldrb	r3, [r3, #240]	@ zero_extendqisi2
	.loc 1 854 7
	cmp	r3, #2
	beq	.L27
	.loc 1 856 23
	ldr	r3, .L30
	movs	r2, #6
	strb	r2, [r3, #1152]
	.loc 1 862 1
	b	.L29
.L27:
	.loc 1 860 23
	ldr	r3, .L30
	movs	r2, #2
	strb	r2, [r3, #1152]
.L29:
	.loc 1 862 1
	nop
	bx	lr
.L31:
	.align	2
.L30:
	.word	MacCtx
.LFE5:
	.size	UpdateRxSlotIdleState, .-UpdateRxSlotIdleState
	.section	.text.ProcessRadioTxDone,"ax",%progbits
	.align	1
	.syntax unified
	.thumb
	.thumb_func
	.fpu fpv4-sp-d16
	.type	ProcessRadioTxDone, %function
ProcessRadioTxDone:
.LFB6:
	.loc 1 865 1
	@ args = 0, pretend = 0, frame = 16
	@ frame_needed = 0, uses_anonymous_args = 0
	push	{lr}
.LCFI9:
	sub	sp, sp, #20
.LCFI10:
	.loc 1 870 15
	ldr	r3, .L40
	ldr	r3, [r3, #1156]
	.loc 1 870 22
	ldrb	r3, [r3, #240]	@ zero_extendqisi2
	.loc 1 870 7
	cmp	r3, #2
	beq	.L33
	.loc 1 872 14
	ldr	r3, .L40+4
	ldr	r3, [r3, #44]
	.loc 1 872 9
	blx	r3
.LVL5:
.L33:
	.loc 1 876 5
	ldr	r3, .L40
	ldr	r3, [r3, #944]
	mov	r1, r3
	ldr	r0, .L40+8
	bl	TimerSetValue
	.loc 1 877 5
	ldr	r0, .L40+8
	bl	TimerStart
	.loc 1 878 5
	ldr	r3, .L40
	ldr	r3, [r3, #948]
	mov	r1, r3
	ldr	r0, .L40+12
	bl	TimerSetValue
	.loc 1 879 5
	ldr	r0, .L40+12
	bl	TimerStart
	.loc 1 881 17
	ldr	r3, .L40
	ldr	r3, [r3, #1156]
	.loc 1 881 24
	ldrb	r3, [r3, #240]	@ zero_extendqisi2
	.loc 1 881 7
	cmp	r3, #2
	beq	.L34
	.loc 1 881 62 discriminator 1
	ldr	r3, .L40
	ldrb	r3, [r3, #1044]	@ zero_extendqisi2
	.loc 1 881 51 discriminator 1
	cmp	r3, #0
	beq	.L35
.L34:
	.loc 1 883 26
	movs	r3, #22
	strb	r3, [sp, #12]
	.loc 1 884 45
	ldr	r3, .L40
	ldr	r3, [r3, #1156]
	.loc 1 884 20
	ldrb	r3, [r3]	@ zero_extendqisi2
	add	r2, sp, #12
	mov	r1, r2
	mov	r0, r3
	bl	RegionGetPhyParam
	mov	r3, r0
	str	r3, [sp, #8]
	.loc 1 885 55
	ldr	r3, .L40
	ldr	r2, [r3, #948]
	.loc 1 885 81
	ldr	r3, [sp, #8]
	.loc 1 885 9
	add	r3, r3, r2
	mov	r1, r3
	ldr	r0, .L40+16
	bl	TimerSetValue
	.loc 1 886 9
	ldr	r0, .L40+16
	bl	TimerStart
.L35:
	.loc 1 890 11
	ldr	r3, .L40
	ldr	r3, [r3, #1156]
	.loc 1 890 42
	ldr	r2, .L40
	ldrb	r2, [r2, #1045]	@ zero_extendqisi2
	.loc 1 890 34
	strb	r2, [r3, #318]
	.loc 1 892 28
	ldr	r3, .L40
	ldrb	r3, [r3, #1045]	@ zero_extendqisi2
	.loc 1 892 20
	strb	r3, [sp]
	.loc 1 893 15
	ldr	r3, .L40
	ldr	r3, [r3, #1156]
	.loc 1 893 22
	ldrb	r3, [r3, #472]	@ zero_extendqisi2
	.loc 1 893 7
	cmp	r3, #0
	bne	.L36
	.loc 1 895 24
	movs	r3, #0
	strb	r3, [sp, #1]
	b	.L37
.L36:
	.loc 1 899 24
	movs	r3, #1
	strb	r3, [sp, #1]
.L37:
	.loc 1 901 41
	ldr	r3, .L40+20
	ldr	r3, [r3]
	.loc 1 901 27
	str	r3, [sp, #4]
	.loc 1 902 32
	ldr	r3, .L40
	ldr	r3, [r3, #1156]
	.loc 1 902 5
	ldrb	r3, [r3]	@ zero_extendqisi2
	mov	r2, sp
	mov	r1, r2
	mov	r0, r3
	bl	RegionSetBandTxDone
	.loc 1 904 11
	ldr	r3, .L40
	ldr	r3, [r3, #1156]
	.loc 1 904 49
	ldr	r2, .L40+20
	ldr	r2, [r2]
	.loc 1 904 35
	str	r2, [r3, #452]
	.loc 1 906 15
	ldr	r3, .L40
	ldrb	r3, [r3, #1044]	@ zero_extendqisi2
	.loc 1 906 33
	eor	r3, r3, #1
	uxtb	r3, r3
	.loc 1 906 7
	cmp	r3, #0
	beq	.L39
	.loc 1 908 35
	ldr	r3, .L40
	movs	r2, #0
	strb	r2, [r3, #1085]
.L39:
	.loc 1 910 1
	nop
	add	sp, sp, #20
.LCFI11:
	@ sp needed
	ldr	pc, [sp], #4
.L41:
	.align	2
.L40:
	.word	MacCtx
	.word	Radio
	.word	MacCtx+896
	.word	MacCtx+920
	.word	MacCtx+1016
	.word	TxDoneParams
.LFE6:
	.size	ProcessRadioTxDone, .-ProcessRadioTxDone
	.section	.text.PrepareRxDoneAbort,"ax",%progbits
	.align	1
	.syntax unified
	.thumb
	.thumb_func
	.fpu fpv4-sp-d16
	.type	PrepareRxDoneAbort, %function
PrepareRxDoneAbort:
.LFB7:
	.loc 1 913 1
	@ args = 0, pretend = 0, frame = 0
	@ frame_needed = 0, uses_anonymous_args = 0
	push	{r3, lr}
.LCFI12:
	.loc 1 914 21
	ldr	r3, .L44
	ldr	r3, [r3, #832]
	orr	r3, r3, #128
	ldr	r2, .L44
	str	r3, [r2, #832]
	.loc 1 916 15
	ldr	r3, .L44
	ldrb	r3, [r3, #1044]	@ zero_extendqisi2
	.loc 1 916 7
	cmp	r3, #0
	beq	.L43
	.loc 1 918 9
	movs	r0, #0
	bl	OnAckTimeoutTimerEvent
.L43:
	.loc 1 921 34
	ldr	r2, .L44
	ldrb	r3, [r2, #1153]
	orr	r3, r3, #2
	strb	r3, [r2, #1153]
	.loc 1 922 34
	ldr	r2, .L44
	ldrb	r3, [r2, #1153]
	orr	r3, r3, #32
	strb	r3, [r2, #1153]
	.loc 1 924 5
	bl	UpdateRxSlotIdleState
	.loc 1 925 1
	nop
	pop	{r3, pc}
.L45:
	.align	2
.L44:
	.word	MacCtx
.LFE7:
	.size	PrepareRxDoneAbort, .-PrepareRxDoneAbort
	.section	.text.ProcessRadioRxDone,"ax",%progbits
	.align	1
	.syntax unified
	.thumb
	.thumb_func
	.fpu fpv4-sp-d16
	.type	ProcessRadioRxDone, %function
ProcessRadioRxDone:
.LFB8:
	.loc 1 928 1
	@ args = 0, pretend = 0, frame = 136
	@ frame_needed = 0, uses_anonymous_args = 0
	push	{r4, r5, lr}
.LCFI13:
	sub	sp, sp, #156
.LCFI14:
	.loc 1 933 27
	movs	r3, #19
	strb	r3, [sp, #144]
	.loc 1 937 14
	ldr	r3, .L97
	ldr	r3, [r3, #4]
	str	r3, [sp, #140]
	.loc 1 938 14
	ldr	r3, .L97
	ldrh	r3, [r3, #8]	@ movhi
	strh	r3, [sp, #138]	@ movhi
	.loc 1 939 13
	ldr	r3, .L97
	ldrh	r3, [r3, #10]	@ movhi
	strh	r3, [sp, #136]	@ movhi
	.loc 1 940 12
	ldr	r3, .L97
	ldrb	r3, [r3, #12]
	strb	r3, [sp, #135]
	.loc 1 942 13
	movs	r3, #0
	strb	r3, [sp, #134]
	.loc 1 944 14
	movs	r3, #0
	str	r3, [sp, #24]
	.loc 1 945 30
	ldr	r3, .L97+4
	ldr	r3, [r3, #1156]
	.loc 1 945 14
	ldr	r3, [r3, #76]
	str	r3, [sp, #148]
	.loc 1 946 13
	movs	r3, #0
	strb	r3, [sp, #147]
	.loc 1 947 25
	movs	r3, #4
	strb	r3, [sp, #146]
	.loc 1 950 36
	ldr	r3, .L97+4
	movs	r2, #0
	strb	r2, [r3, #1088]
	.loc 1 951 32
	ldr	r2, .L97+4
	ldrh	r3, [sp, #136]	@ movhi
	strh	r3, [r2, #1066]	@ movhi
	.loc 1 952 31
	ldr	r2, .L97+4
	ldrb	r3, [sp, #135]
	strb	r3, [r2, #1068]
	.loc 1 953 42
	ldr	r3, .L97+4
	ldrb	r2, [r3, #1152]	@ zero_extendqisi2
	.loc 1 953 34
	ldr	r3, .L97+4
	strb	r2, [r3, #1069]
	.loc 1 954 32
	ldr	r3, .L97+4
	movs	r2, #0
	strb	r2, [r3, #1055]
	.loc 1 955 37
	ldr	r3, .L97+4
	movs	r2, #0
	strb	r2, [r3, #1054]
	.loc 1 956 40
	ldr	r3, .L97+4
	movs	r2, #0
	strb	r2, [r3, #1057]
	.loc 1 957 34
	ldr	r3, .L97+4
	movs	r2, #0
	str	r2, [r3, #1060]
	.loc 1 958 38
	ldr	r3, .L97+4
	movs	r2, #0
	strb	r2, [r3, #1064]
	.loc 1 959 34
	ldr	r3, .L97+4
	movs	r2, #0
	strb	r2, [r3, #1065]
	.loc 1 960 39
	ldr	r3, .L97+4
	movs	r2, #0
	strb	r2, [r3, #1070]
	.loc 1 961 43
	ldr	r3, .L97+4
	movs	r2, #0
	str	r2, [r3, #1072]
	.loc 1 962 42
	ldr	r3, .L97+4
	movs	r2, #0
	strb	r2, [r3, #1052]
	.loc 1 963 38
	ldr	r3, .L97+4
	movs	r2, #0
	str	r2, [r3, #1076]
	.loc 1 964 49
	ldr	r3, .L97+4
	movs	r2, #0
	strb	r2, [r3, #1080]
	.loc 1 966 10
	ldr	r3, .L97+8
	ldr	r3, [r3, #44]
	.loc 1 966 5
	blx	r3
.LVL6:
	.loc 1 967 5
	ldr	r0, .L97+12
	bl	TimerStop
	.loc 1 970 9
	ldrh	r3, [sp, #138]
	mov	r1, r3
	ldr	r0, [sp, #140]
	bl	LoRaMacClassBRxBeacon
	mov	r3, r0
	.loc 1 970 7
	cmp	r3, #0
	beq	.L47
	.loc 1 972 47
	ldr	r2, .L97+4
	ldrh	r3, [sp, #136]	@ movhi
	strh	r3, [r2, #1142]	@ movhi
	.loc 1 973 46
	ldr	r2, .L97+4
	ldrb	r3, [sp, #135]
	strb	r3, [r2, #1144]
	.loc 1 974 9
	b	.L46
.L47:
	.loc 1 977 15
	ldr	r3, .L97+4
	ldr	r3, [r3, #1156]
	.loc 1 977 22
	ldrb	r3, [r3, #240]	@ zero_extendqisi2
	.loc 1 977 7
	cmp	r3, #1
	bne	.L49
	.loc 1 979 13
	bl	LoRaMacClassBIsPingExpected
	mov	r3, r0
	.loc 1 979 11
	cmp	r3, #0
	beq	.L50
	.loc 1 981 13
	movs	r0, #0
	bl	LoRaMacClassBSetPingSlotState
	.loc 1 982 13
	movs	r0, #0
	bl	LoRaMacClassBPingSlotTimerEvent
	.loc 1 983 42
	ldr	r3, .L97+4
	movs	r2, #4
	strb	r2, [r3, #1069]
	b	.L49
.L50:
	.loc 1 985 18
	bl	LoRaMacClassBIsMulticastExpected
	mov	r3, r0
	.loc 1 985 16
	cmp	r3, #0
	beq	.L49
	.loc 1 987 13
	movs	r0, #0
	bl	LoRaMacClassBSetMulticastSlotState
	.loc 1 988 13
	movs	r0, #0
	bl	LoRaMacClassBMulticastSlotTimerEvent
	.loc 1 989 42
	ldr	r3, .L97+4
	movs	r2, #5
	strb	r2, [r3, #1069]
.L49:
	.loc 1 993 40
	ldrb	r3, [sp, #134]	@ zero_extendqisi2
	adds	r2, r3, #1
	strb	r2, [sp, #134]
	mov	r2, r3
	.loc 1 993 27
	ldr	r3, [sp, #140]
	add	r3, r3, r2
	ldrb	r3, [r3]	@ zero_extendqisi2
	.loc 1 993 18
	strb	r3, [sp, #132]
	.loc 1 995 24
	ldrb	r3, [sp, #132]
	ubfx	r3, r3, #5, #3
	uxtb	r3, r3
	subs	r3, r3, #1
	cmp	r3, #6
	bhi	.L51
	adr	r2, .L53
	ldr	pc, [r2, r3, lsl #2]
	.p2align 2
.L53:
	.word	.L56+1
	.word	.L51+1
	.word	.L55+1
	.word	.L51+1
	.word	.L54+1
	.word	.L51+1
	.word	.L52+1
	.p2align 1
.L56:
.LBB2:
	.loc 1 998 37
	ldr	r3, [sp, #140]
	str	r3, [sp, #28]
	.loc 1 999 38
	ldrh	r3, [sp, #138]	@ movhi
	uxtb	r3, r3
	strb	r3, [sp, #32]
	.loc 1 1002 23
	ldr	r3, .L97+4
	ldr	r3, [r3, #1156]
	.loc 1 1002 30
	ldrb	r3, [r3, #472]	@ zero_extendqisi2
	.loc 1 1002 15
	cmp	r3, #0
	beq	.L57
	.loc 1 1004 46
	ldr	r3, .L97+4
	movs	r2, #1
	strb	r2, [r3, #1053]
	.loc 1 1005 17
	bl	PrepareRxDoneAbort
	.loc 1 1006 17
	b	.L46
.L57:
	.loc 1 1008 31
	bl	SecureElementGetJoinEui
	mov	r1, r0
	add	r3, sp, #28
	mov	r2, r3
	movs	r0, #255
	bl	LoRaMacCryptoHandleJoinAccept
	mov	r3, r0
	strb	r3, [sp, #144]
	.loc 1 1010 15
	ldrb	r3, [sp, #144]	@ zero_extendqisi2
	cmp	r3, #0
	bne	.L59
	.loc 1 1013 75
	ldrb	r2, [sp, #37]	@ zero_extendqisi2
	.loc 1 1013 23
	ldr	r3, .L97+4
	ldr	r3, [r3, #1156]
	.loc 1 1013 38
	str	r2, [r3, #72]
	.loc 1 1014 23
	ldr	r3, .L97+4
	ldr	r3, [r3, #1156]
	.loc 1 1014 38
	ldr	r1, [r3, #72]
	.loc 1 1014 78
	ldrb	r3, [sp, #38]	@ zero_extendqisi2
	.loc 1 1014 82
	lsls	r2, r3, #8
	.loc 1 1014 23
	ldr	r3, .L97+4
	ldr	r3, [r3, #1156]
	.loc 1 1014 38
	orrs	r2, r2, r1
	str	r2, [r3, #72]
	.loc 1 1015 23
	ldr	r3, .L97+4
	ldr	r3, [r3, #1156]
	.loc 1 1015 38
	ldr	r1, [r3, #72]
	.loc 1 1015 78
	ldrb	r3, [sp, #39]	@ zero_extendqisi2
	.loc 1 1015 82
	lsls	r2, r3, #16
	.loc 1 1015 23
	ldr	r3, .L97+4
	ldr	r3, [r3, #1156]
	.loc 1 1015 38
	orrs	r2, r2, r1
	str	r2, [r3, #72]
	.loc 1 1018 23
	ldr	r3, .L97+4
	ldr	r3, [r3, #1156]
	.loc 1 1018 58
	ldr	r2, [sp, #40]
	.loc 1 1018 40
	str	r2, [r3, #76]
	.loc 1 1021 88
	ldrb	r3, [sp, #44]
	ubfx	r3, r3, #4, #3
	uxtb	r2, r3
	.loc 1 1021 23
	ldr	r3, .L97+4
	ldr	r3, [r3, #1156]
	.loc 1 1021 54
	strb	r2, [r3, #281]
	.loc 1 1022 96
	ldrb	r3, [sp, #44]
	ubfx	r3, r3, #0, #4
	uxtb	r2, r3
	.loc 1 1022 23
	ldr	r3, .L97+4
	ldr	r3, [r3, #1156]
	.loc 1 1022 62
	strb	r2, [r3, #288]
	.loc 1 1023 96
	ldrb	r3, [sp, #44]
	ubfx	r3, r3, #0, #4
	uxtb	r2, r3
	.loc 1 1023 23
	ldr	r3, .L97+4
	ldr	r3, [r3, #1156]
	.loc 1 1023 62
	strb	r2, [r3, #296]
	.loc 1 1026 74
	ldrb	r2, [sp, #45]	@ zero_extendqisi2
	.loc 1 1026 23
	ldr	r3, .L97+4
	ldr	r3, [r3, #1156]
	.loc 1 1026 56
	str	r2, [r3, #264]
	.loc 1 1027 27
	ldr	r3, .L97+4
	ldr	r3, [r3, #1156]
	.loc 1 1027 45
	ldr	r3, [r3, #264]
	.loc 1 1027 19
	cmp	r3, #0
	bne	.L60
	.loc 1 1029 27
	ldr	r3, .L97+4
	ldr	r3, [r3, #1156]
	.loc 1 1029 60
	movs	r2, #1
	str	r2, [r3, #264]
.L60:
	.loc 1 1031 23
	ldr	r3, .L97+4
	ldr	r3, [r3, #1156]
	.loc 1 1031 56
	ldr	r2, [r3, #264]
	.loc 1 1031 23
	ldr	r3, .L97+4
	ldr	r3, [r3, #1156]
	.loc 1 1031 56
	mov	r1, #1000
	mul	r2, r1, r2
	str	r2, [r3, #264]
	.loc 1 1032 64
	ldr	r3, .L97+4
	ldr	r3, [r3, #1156]
	.loc 1 1032 82
	ldr	r2, [r3, #264]
	.loc 1 1032 23
	ldr	r3, .L97+4
	ldr	r3, [r3, #1156]
	.loc 1 1032 97
	add	r2, r2, #1000
	.loc 1 1032 56
	str	r2, [r3, #268]
	.loc 1 1034 23
	ldr	r3, .L97+4
	ldr	r3, [r3, #1156]
	.loc 1 1034 53
	movs	r2, #0
	strb	r2, [r3, #470]
	.loc 1 1037 37
	add	r3, sp, #28
	adds	r3, r3, #18
	str	r3, [sp, #124]
	.loc 1 1039 41
	ldrh	r3, [sp, #138]	@ movhi
	uxtb	r3, r3
	subs	r3, r3, #17
	uxtb	r3, r3
	.loc 1 1039 34
	strb	r3, [sp, #128]
	.loc 1 1041 42
	ldr	r3, .L97+4
	ldr	r3, [r3, #1156]
	.loc 1 1041 17
	ldrb	r3, [r3]	@ zero_extendqisi2
	add	r2, sp, #124
	mov	r1, r2
	mov	r0, r3
	bl	RegionApplyCFList
	.loc 1 1043 23
	ldr	r3, .L97+4
	ldr	r3, [r3, #1156]
	.loc 1 1043 50
	movs	r2, #2
	strb	r2, [r3, #472]
	.loc 1 1046 21
	movs	r0, #0
	bl	LoRaMacConfirmQueueIsCmdActive
	mov	r3, r0
	.loc 1 1046 19
	cmp	r3, #0
	beq	.L95
	.loc 1 1048 21
	movs	r1, #0
	movs	r0, #0
	bl	LoRaMacConfirmQueueSetStatus
	.loc 1 1059 13
	b	.L95
.L59:
	.loc 1 1054 21
	movs	r0, #0
	bl	LoRaMacConfirmQueueIsCmdActive
	mov	r3, r0
	.loc 1 1054 19
	cmp	r3, #0
	beq	.L95
	.loc 1 1056 21
	movs	r1, #0
	movs	r0, #7
	bl	LoRaMacConfirmQueueSetStatus
	.loc 1 1059 13
	b	.L95
.L98:
	.align	2
.L97:
	.word	RxDoneParams
	.word	MacCtx
	.word	Radio
	.word	MacCtx+920
.L54:
	.loc 1 1061 50
	ldr	r3, .L99
	movs	r2, #1
	strb	r2, [r3, #1052]
.L55:
	.loc 1 1065 44
	ldr	r3, .L99
	ldr	r3, [r3, #1156]
	.loc 1 1065 62
	ldrb	r3, [r3, #301]	@ zero_extendqisi2
	.loc 1 1065 36
	strb	r3, [sp, #122]
	.loc 1 1066 52
	ldr	r3, .L99
	ldrb	r3, [r3, #1056]	@ zero_extendqisi2
	sxtb	r3, r3
	.loc 1 1066 29
	strb	r3, [sp, #121]
	.loc 1 1067 30
	movs	r3, #13
	strb	r3, [sp, #120]
	.loc 1 1070 23
	ldr	r3, .L99
	ldr	r3, [r3, #1156]
	.loc 1 1070 30
	ldrb	r3, [r3, #319]	@ zero_extendqisi2
	.loc 1 1070 15
	cmp	r3, #0
	beq	.L63
	.loc 1 1072 34
	movs	r3, #14
	strb	r3, [sp, #120]
.L63:
	.loc 1 1074 49
	ldr	r3, .L99
	ldr	r3, [r3, #1156]
	.loc 1 1074 24
	ldrb	r3, [r3]	@ zero_extendqisi2
	add	r2, sp, #120
	mov	r1, r2
	mov	r0, r3
	bl	RegionGetPhyParam
	mov	r3, r0
	str	r3, [sp, #116]
	.loc 1 1075 17
	ldrh	r3, [sp, #138]	@ movhi
	subs	r3, r3, #13
	uxth	r3, r3
	sxth	r3, r3
	bic	r3, r3, r3, asr #31
	sxth	r2, r3
	.loc 1 1075 123
	ldr	r3, [sp, #116]
	.loc 1 1075 104
	sxth	r3, r3
	.loc 1 1075 15
	cmp	r2, r3
	ble	.L64
	.loc 1 1077 46
	ldr	r3, .L99
	movs	r2, #1
	strb	r2, [r3, #1053]
	.loc 1 1078 17
	bl	PrepareRxDoneAbort
	.loc 1 1079 17
	b	.L46
.L64:
	.loc 1 1081 31
	ldr	r3, [sp, #140]
	str	r3, [sp, #68]
	.loc 1 1082 32
	ldrh	r3, [sp, #138]	@ movhi
	uxtb	r3, r3
	strb	r3, [sp, #72]
	.loc 1 1083 35
	ldr	r3, .L99+4
	str	r3, [sp, #104]
	.loc 1 1084 39
	movs	r3, #255
	strb	r3, [sp, #108]
	.loc 1 1086 43
	add	r3, sp, #68
	mov	r0, r3
	bl	LoRaMacParserData
	mov	r3, r0
	.loc 1 1086 15
	cmp	r3, #0
	beq	.L65
	.loc 1 1088 46
	ldr	r3, .L99
	movs	r2, #1
	strb	r2, [r3, #1053]
	.loc 1 1089 17
	bl	PrepareRxDoneAbort
	.loc 1 1090 17
	b	.L46
.L65:
	.loc 1 1094 63
	ldr	r3, [sp, #76]
	.loc 1 1094 46
	ldr	r2, .L99
	str	r3, [r2, #1076]
	.loc 1 1097 38
	add	r2, sp, #22
	add	r3, sp, #68
	mov	r1, r2
	mov	r0, r3
	bl	DetermineFrameType
	mov	r3, r0
	.loc 1 1097 15
	cmp	r3, #0
	beq	.L66
	.loc 1 1099 46
	ldr	r3, .L99
	movs	r2, #1
	strb	r2, [r3, #1053]
	.loc 1 1100 17
	bl	PrepareRxDoneAbort
	.loc 1 1101 17
	b	.L46
.L66:
	.loc 1 1105 23
	movs	r3, #0
	strb	r3, [sp, #147]
	.loc 1 1106 29
	movs	r3, #0
	str	r3, [sp, #24]
.LBB3:
	.loc 1 1107 26
	movs	r3, #0
	strb	r3, [sp, #145]
	.loc 1 1107 13
	b	.L67
.L71:
	.loc 1 1109 29
	ldr	r3, .L99
	ldr	r1, [r3, #1156]
	.loc 1 1109 75
	ldrb	r2, [sp, #145]	@ zero_extendqisi2
	mov	r3, r2
	lsls	r3, r3, #2
	add	r3, r3, r2
	lsls	r3, r3, #3
	add	r3, r3, r1
	adds	r3, r3, #84
	ldr	r2, [r3]
	.loc 1 1109 102
	ldr	r3, [sp, #76]
	.loc 1 1109 19
	cmp	r2, r3
	bne	.L68
	.loc 1 1110 29 discriminator 1
	ldr	r3, .L99
	ldr	r1, [r3, #1156]
	.loc 1 1110 75 discriminator 1
	ldrb	r2, [sp, #145]	@ zero_extendqisi2
	mov	r3, r2
	lsls	r3, r3, #2
	add	r3, r3, r2
	lsls	r3, r3, #3
	add	r3, r3, r1
	adds	r3, r3, #81
	ldrb	r3, [r3]	@ zero_extendqisi2
	.loc 1 1109 113 discriminator 1
	cmp	r3, #0
	beq	.L68
	.loc 1 1112 31
	movs	r3, #1
	strb	r3, [sp, #147]
	.loc 1 1113 36
	ldr	r3, .L99
	ldr	r1, [r3, #1156]
	.loc 1 1113 82
	ldrb	r2, [sp, #145]	@ zero_extendqisi2
	.loc 1 1113 28
	mov	r3, r2
	lsls	r3, r3, #2
	add	r3, r3, r2
	lsls	r3, r3, #3
	add	r3, r3, r1
	adds	r3, r3, #82
	ldrb	r3, [r3]
	strb	r3, [sp, #146]
	.loc 1 1114 48
	ldr	r3, .L99
	ldr	r1, [r3, #1156]
	.loc 1 1114 80
	ldrb	r2, [sp, #145]	@ zero_extendqisi2
	mov	r3, r2
	lsls	r3, r3, #2
	add	r3, r3, r2
	lsls	r3, r3, #3
	add	r3, r3, r1
	adds	r3, r3, #108
	ldr	r3, [r3]
	.loc 1 1114 39
	ldr	r3, [r3]
	.loc 1 1114 37
	str	r3, [sp, #24]
	.loc 1 1115 37
	ldr	r3, .L99
	ldr	r1, [r3, #1156]
	.loc 1 1115 83
	ldrb	r2, [sp, #145]	@ zero_extendqisi2
	.loc 1 1115 29
	mov	r3, r2
	lsls	r3, r3, #2
	add	r3, r3, r2
	lsls	r3, r3, #3
	add	r3, r3, r1
	adds	r3, r3, #84
	ldr	r3, [r3]
	str	r3, [sp, #148]
	.loc 1 1116 31
	ldr	r3, .L99
	ldr	r3, [r3, #1156]
	.loc 1 1116 38
	ldrb	r3, [r3, #240]	@ zero_extendqisi2
	.loc 1 1116 23
	cmp	r3, #2
	bne	.L96
	.loc 1 1118 54
	ldr	r3, .L99
	movs	r2, #3
	strb	r2, [r3, #1069]
	.loc 1 1120 21
	b	.L96
.L68:
	.loc 1 1107 58 discriminator 2
	ldrb	r3, [sp, #145]	@ zero_extendqisi2
	adds	r3, r3, #1
	strb	r3, [sp, #145]
.L67:
	.loc 1 1107 13 discriminator 1
	ldrb	r3, [sp, #145]	@ zero_extendqisi2
	cmp	r3, #3
	bls	.L71
	b	.L70
.L96:
	.loc 1 1120 21
	nop
.L70:
.LBE3:
	.loc 1 1125 30
	movs	r3, #21
	strb	r3, [sp, #120]
	.loc 1 1126 49
	ldr	r3, .L99
	ldr	r3, [r3, #1156]
	.loc 1 1126 24
	ldrb	r3, [r3]	@ zero_extendqisi2
	add	r2, sp, #120
	mov	r1, r2
	mov	r0, r3
	bl	RegionGetPhyParam
	mov	r3, r0
	str	r3, [sp, #116]
	.loc 1 1129 31
	ldrb	r4, [sp, #22]	@ zero_extendqisi2
	.loc 1 1129 78
	ldr	r3, .L99
	ldr	r3, [r3, #1156]
	.loc 1 1129 104
	ldr	r2, [sp, #116]
	.loc 1 1129 31
	uxth	r2, r2
	add	r5, sp, #68
	ldrb	r0, [sp, #146]	@ zero_extendqisi2
	add	r1, sp, #24
	str	r1, [sp, #8]
	add	r1, sp, #23
	str	r1, [sp, #4]
	str	r2, [sp]
	ldr	r3, [r3, #468]
	mov	r2, r5
	mov	r1, r4
	bl	GetFCntDown
	mov	r3, r0
	strb	r3, [sp, #144]
	.loc 1 1130 15
	ldrb	r3, [sp, #144]	@ zero_extendqisi2
	cmp	r3, #0
	beq	.L72
	.loc 1 1132 19
	ldrb	r3, [sp, #144]	@ zero_extendqisi2
	cmp	r3, #7
	bne	.L73
	.loc 1 1135 50
	ldr	r3, .L99
	movs	r2, #8
	strb	r2, [r3, #1053]
	.loc 1 1136 33
	ldr	r3, .L99
	ldr	r3, [r3, #1156]
	.loc 1 1136 56
	ldrb	r3, [r3, #470]	@ zero_extendqisi2
	.loc 1 1136 23
	cmp	r3, #0
	bne	.L74
	.loc 1 1136 93 discriminator 1
	ldrb	r3, [sp, #132]	@ zero_extendqisi2
	bic	r3, r3, #31
	uxtb	r3, r3
	.loc 1 1136 70 discriminator 1
	cmp	r3, #160
	bne	.L74
	.loc 1 1136 140 discriminator 2
	ldr	r3, .L99
	ldr	r3, [r3, #1156]
	.loc 1 1136 147 discriminator 2
	ldr	r2, [r3, #476]
	.loc 1 1136 172 discriminator 2
	ldr	r3, [sp, #112]
	.loc 1 1136 129 discriminator 2
	cmp	r2, r3
	bne	.L74
	.loc 1 1138 31
	ldr	r3, .L99
	ldr	r3, [r3, #1156]
	.loc 1 1138 56
	movs	r2, #1
	strb	r2, [r3, #448]
	b	.L74
.L73:
	.loc 1 1141 24
	ldrb	r3, [sp, #144]	@ zero_extendqisi2
	cmp	r3, #8
	bne	.L75
	.loc 1 1144 50
	ldr	r3, .L99
	movs	r2, #10
	strb	r2, [r3, #1053]
	b	.L74
.L75:
	.loc 1 1149 50
	ldr	r3, .L99
	movs	r2, #1
	strb	r2, [r3, #1053]
.L74:
	.loc 1 1151 55
	ldr	r3, [sp, #24]
	ldr	r2, .L99
	str	r3, [r2, #1072]
	.loc 1 1152 17
	bl	PrepareRxDoneAbort
	.loc 1 1153 17
	b	.L46
.L72:
	.loc 1 1156 31
	ldrb	r2, [sp, #23]	@ zero_extendqisi2
	ldr	r1, [sp, #24]
	ldrb	r0, [sp, #146]	@ zero_extendqisi2
	add	r3, sp, #68
	str	r3, [sp]
	mov	r3, r1
	ldr	r1, [sp, #148]
	bl	LoRaMacCryptoUnsecureMessage
	mov	r3, r0
	strb	r3, [sp, #144]
	.loc 1 1157 15
	ldrb	r3, [sp, #144]	@ zero_extendqisi2
	cmp	r3, #0
	beq	.L76
	.loc 1 1159 19
	ldrb	r3, [sp, #144]	@ zero_extendqisi2
	cmp	r3, #2
	bne	.L77
	.loc 1 1162 50
	ldr	r3, .L99
	movs	r2, #11
	strb	r2, [r3, #1053]
	b	.L78
.L77:
	.loc 1 1167 50
	ldr	r3, .L99
	movs	r2, #12
	strb	r2, [r3, #1053]
.L78:
	.loc 1 1169 17
	bl	PrepareRxDoneAbort
	.loc 1 1170 17
	b	.L46
.L100:
	.align	2
.L99:
	.word	MacCtx
	.word	MacCtx+568
.L76:
	.loc 1 1174 42
	ldr	r3, .L101
	movs	r2, #0
	strb	r2, [r3, #1053]
	.loc 1 1175 45
	ldr	r2, .L101
	ldrb	r3, [sp, #147]
	strb	r3, [r2, #1054]
	.loc 1 1176 76
	ldrb	r3, [sp, #80]
	ubfx	r3, r3, #4, #1
	uxtb	r3, r3
	mov	r2, r3
	.loc 1 1176 48
	ldr	r3, .L101
	strb	r2, [r3, #1057]
	.loc 1 1177 42
	ldr	r3, .L101
	movs	r2, #0
	str	r2, [r3, #1060]
	.loc 1 1178 46
	ldr	r3, .L101
	movs	r2, #0
	strb	r2, [r3, #1064]
	.loc 1 1179 51
	ldr	r3, [sp, #24]
	ldr	r2, .L101
	str	r3, [r2, #1072]
	.loc 1 1180 75
	ldrb	r3, [sp, #80]
	ubfx	r3, r3, #5, #1
	uxtb	r3, r3
	cmp	r3, #0
	ite	ne
	movne	r3, #1
	moveq	r3, #0
	uxtb	r2, r3
	.loc 1 1180 47
	ldr	r3, .L101
	strb	r2, [r3, #1070]
	.loc 1 1182 39
	ldr	r3, .L101
	movs	r2, #0
	strb	r2, [r3, #1085]
	.loc 1 1183 72
	ldrb	r3, [sp, #80]
	ubfx	r3, r3, #5, #1
	uxtb	r3, r3
	cmp	r3, #0
	ite	ne
	movne	r3, #1
	moveq	r3, #0
	uxtb	r2, r3
	.loc 1 1183 44
	ldr	r3, .L101
	strb	r2, [r3, #1088]
	.loc 1 1186 40
	ldr	r3, .L101
	ldrb	r3, [r3, #1069]	@ zero_extendqisi2
	.loc 1 1186 15
	cmp	r3, #0
	beq	.L79
	.loc 1 1187 40 discriminator 1
	ldr	r3, .L101
	ldrb	r3, [r3, #1069]	@ zero_extendqisi2
	.loc 1 1186 67 discriminator 1
	cmp	r3, #1
	bne	.L80
.L79:
	.loc 1 1189 23
	ldr	r3, .L101
	ldr	r3, [r3, #1156]
	.loc 1 1189 46
	movs	r2, #0
	str	r2, [r3, #244]
.L80:
	.loc 1 1193 15
	ldrb	r3, [sp, #147]	@ zero_extendqisi2
	cmp	r3, #1
	bne	.L81
	.loc 1 1195 54
	ldr	r3, .L101
	movs	r2, #2
	strb	r2, [r3, #1052]
	b	.L82
.L81:
	.loc 1 1199 39
	ldrb	r3, [sp, #132]	@ zero_extendqisi2
	bic	r3, r3, #31
	uxtb	r3, r3
	.loc 1 1199 19
	cmp	r3, #160
	bne	.L83
	.loc 1 1201 27
	ldr	r3, .L101
	ldr	r3, [r3, #1156]
	.loc 1 1201 52
	movs	r2, #1
	strb	r2, [r3, #448]
	.loc 1 1202 31
	ldr	r3, .L101
	ldr	r3, [r3, #1156]
	.loc 1 1202 54
	ldrb	r3, [r3, #470]	@ zero_extendqisi2
	.loc 1 1202 23
	cmp	r3, #0
	bne	.L84
	.loc 1 1204 31
	ldr	r3, .L101
	ldr	r3, [r3, #1156]
	.loc 1 1204 62
	ldr	r2, [sp, #112]
	.loc 1 1204 50
	str	r2, [r3, #476]
.L84:
	.loc 1 1206 58
	ldr	r3, .L101
	movs	r2, #1
	strb	r2, [r3, #1052]
	b	.L82
.L83:
	.loc 1 1210 27
	ldr	r3, .L101
	ldr	r3, [r3, #1156]
	.loc 1 1210 52
	movs	r2, #0
	strb	r2, [r3, #448]
	.loc 1 1211 58
	ldr	r3, .L101
	movs	r2, #0
	strb	r2, [r3, #1052]
.L82:
	.loc 1 1215 13
	ldr	r3, .L101
	ldrb	r3, [r3, #1069]	@ zero_extendqisi2
	ldr	r2, .L101
	ldrb	r2, [r2, #1084]	@ zero_extendqisi2
	ldrb	r1, [sp, #80]
	mov	r0, r3
	bl	RemoveMacCommands
	.loc 1 1217 13
	ldrb	r3, [sp, #22]	@ zero_extendqisi2
	cmp	r3, #3
	bhi	.L85
	adr	r2, .L87
	ldr	pc, [r2, r3, lsl #2]
	.p2align 2
.L87:
	.word	.L90+1
	.word	.L89+1
	.word	.L88+1
	.word	.L86+1
	.p2align 1
.L90:
	.loc 1 1228 93
	ldrb	r3, [sp, #80]
	ubfx	r3, r3, #0, #4
	uxtb	r3, r3
	.loc 1 1228 21
	mov	r4, r3
	ldr	r3, .L101
	ldrb	r3, [r3, #1069]	@ zero_extendqisi2
	ldrsb	r1, [sp, #135]
	add	r2, sp, #68
	add	r0, r2, #16
	str	r3, [sp]
	mov	r3, r1
	mov	r2, r4
	movs	r1, #0
	bl	ProcessMacCommands
	.loc 1 1229 60
	ldrb	r2, [sp, #100]	@ zero_extendqisi2
	.loc 1 1229 48
	ldr	r3, .L101
	strb	r2, [r3, #1055]
	.loc 1 1230 62
	ldr	r3, [sp, #104]
	.loc 1 1230 50
	ldr	r2, .L101
	str	r3, [r2, #1060]
	.loc 1 1231 66
	ldrb	r2, [sp, #108]	@ zero_extendqisi2
	.loc 1 1231 54
	ldr	r3, .L101
	strb	r2, [r3, #1064]
	.loc 1 1232 50
	ldr	r3, .L101
	movs	r2, #1
	strb	r2, [r3, #1065]
	.loc 1 1233 21
	b	.L91
.L89:
	.loc 1 1244 93
	ldrb	r3, [sp, #80]
	ubfx	r3, r3, #0, #4
	uxtb	r3, r3
	.loc 1 1244 21
	mov	r4, r3
	ldr	r3, .L101
	ldrb	r3, [r3, #1069]	@ zero_extendqisi2
	ldrsb	r1, [sp, #135]
	add	r2, sp, #68
	add	r0, r2, #16
	str	r3, [sp]
	mov	r3, r1
	mov	r2, r4
	movs	r1, #0
	bl	ProcessMacCommands
	.loc 1 1245 60
	ldrb	r2, [sp, #100]	@ zero_extendqisi2
	.loc 1 1245 48
	ldr	r3, .L101
	strb	r2, [r3, #1055]
	.loc 1 1246 21
	b	.L91
.L88:
	.loc 1 1257 21
	ldr	r0, [sp, #104]
	ldrb	r2, [sp, #108]	@ zero_extendqisi2
	ldr	r3, .L101
	ldrb	r3, [r3, #1069]	@ zero_extendqisi2
	ldrsb	r1, [sp, #135]
	str	r3, [sp]
	mov	r3, r1
	movs	r1, #0
	bl	ProcessMacCommands
	.loc 1 1258 60
	ldrb	r2, [sp, #100]	@ zero_extendqisi2
	.loc 1 1258 48
	ldr	r3, .L101
	strb	r2, [r3, #1055]
	.loc 1 1259 21
	b	.L91
.L86:
	.loc 1 1270 60
	ldrb	r2, [sp, #100]	@ zero_extendqisi2
	.loc 1 1270 48
	ldr	r3, .L101
	strb	r2, [r3, #1055]
	.loc 1 1271 62
	ldr	r3, [sp, #104]
	.loc 1 1271 50
	ldr	r2, .L101
	str	r3, [r2, #1060]
	.loc 1 1272 66
	ldrb	r2, [sp, #108]	@ zero_extendqisi2
	.loc 1 1272 54
	ldr	r3, .L101
	strb	r2, [r3, #1064]
	.loc 1 1273 50
	ldr	r3, .L101
	movs	r2, #1
	strb	r2, [r3, #1065]
	.loc 1 1274 21
	b	.L91
.L85:
	.loc 1 1277 50
	ldr	r3, .L101
	movs	r2, #1
	strb	r2, [r3, #1053]
	.loc 1 1278 21
	bl	PrepareRxDoneAbort
	.loc 1 1279 21
	nop
.L91:
	.loc 1 1284 42
	ldr	r2, .L101
	ldrb	r3, [r2, #1153]
	orr	r3, r3, #2
	strb	r3, [r2, #1153]
	.loc 1 1286 13
	b	.L62
.L52:
	.loc 1 1288 13
	ldrb	r3, [sp, #134]	@ zero_extendqisi2
	.loc 1 1288 40
	ldr	r2, [sp, #140]
	adds	r1, r2, r3
	.loc 1 1288 13
	ldrb	r3, [sp, #134]	@ zero_extendqisi2
	uxth	r3, r3
	ldrh	r2, [sp, #138]	@ movhi
	subs	r3, r2, r3
	uxth	r3, r3
	mov	r2, r3
	ldr	r0, .L101+4
	bl	memcpy1
	.loc 1 1290 50
	ldr	r3, .L101
	movs	r2, #3
	strb	r2, [r3, #1052]
	.loc 1 1291 42
	ldr	r3, .L101
	movs	r2, #0
	strb	r2, [r3, #1053]
	.loc 1 1292 42
	ldr	r3, .L101
	ldr	r2, .L101+4
	str	r2, [r3, #1060]
	.loc 1 1293 53
	ldrh	r3, [sp, #138]	@ movhi
	uxtb	r2, r3
	ldrb	r3, [sp, #134]
	subs	r3, r2, r3
	uxtb	r2, r3
	.loc 1 1293 46
	ldr	r3, .L101
	strb	r2, [r3, #1064]
	.loc 1 1295 42
	ldr	r2, .L101
	ldrb	r3, [r2, #1153]
	orr	r3, r3, #2
	strb	r3, [r2, #1153]
	.loc 1 1296 13
	b	.L62
.L51:
	.loc 1 1298 42
	ldr	r3, .L101
	movs	r2, #1
	strb	r2, [r3, #1053]
	.loc 1 1299 13
	bl	PrepareRxDoneAbort
	.loc 1 1300 13
	b	.L62
.L95:
	.loc 1 1059 13
	nop
.L62:
.LBE2:
	.loc 1 1304 15
	ldr	r3, .L101
	ldrb	r3, [r3, #1044]	@ zero_extendqisi2
	.loc 1 1304 7
	cmp	r3, #0
	beq	.L92
	.loc 1 1306 31
	ldr	r3, .L101
	ldrb	r3, [r3, #1088]	@ zero_extendqisi2
	.loc 1 1306 11
	cmp	r3, #0
	beq	.L93
	.loc 1 1308 13
	movs	r0, #0
	bl	OnAckTimeoutTimerEvent
	b	.L93
.L92:
	.loc 1 1313 19
	ldr	r3, .L101
	ldr	r3, [r3, #1156]
	.loc 1 1313 26
	ldrb	r3, [r3, #240]	@ zero_extendqisi2
	.loc 1 1313 11
	cmp	r3, #2
	bne	.L93
	.loc 1 1315 13
	movs	r0, #0
	bl	OnAckTimeoutTimerEvent
.L93:
	.loc 1 1318 34 discriminator 2
	ldr	r2, .L101
	ldrb	r3, [r2, #1153]
	orr	r3, r3, #32
	strb	r3, [r2, #1153]
	.loc 1 1320 5 discriminator 2
	bl	UpdateRxSlotIdleState
.L46:
	.loc 1 1321 1
	add	sp, sp, #156
.LCFI15:
	@ sp needed
	pop	{r4, r5, pc}
.L102:
	.align	2
.L101:
	.word	MacCtx
	.word	MacCtx+568
.LFE8:
	.size	ProcessRadioRxDone, .-ProcessRadioRxDone
	.section	.text.ProcessRadioTxTimeout,"ax",%progbits
	.align	1
	.syntax unified
	.thumb
	.thumb_func
	.fpu fpv4-sp-d16
	.type	ProcessRadioTxTimeout, %function
ProcessRadioTxTimeout:
.LFB9:
	.loc 1 1324 1
	@ args = 0, pretend = 0, frame = 0
	@ frame_needed = 0, uses_anonymous_args = 0
	push	{r3, lr}
.LCFI16:
	.loc 1 1325 15
	ldr	r3, .L106
	ldr	r3, [r3, #1156]
	.loc 1 1325 22
	ldrb	r3, [r3, #240]	@ zero_extendqisi2
	.loc 1 1325 7
	cmp	r3, #2
	beq	.L104
	.loc 1 1327 14
	ldr	r3, .L106+4
	ldr	r3, [r3, #44]
	.loc 1 1327 9
	blx	r3
.LVL7:
.L104:
	.loc 1 1329 5
	bl	UpdateRxSlotIdleState
	.loc 1 1331 31
	ldr	r3, .L106
	movs	r2, #2
	strb	r2, [r3, #1085]
	.loc 1 1332 5
	movs	r0, #2
	bl	LoRaMacConfirmQueueSetStatusCmn
	.loc 1 1333 15
	ldr	r3, .L106
	ldrb	r3, [r3, #1044]	@ zero_extendqisi2
	.loc 1 1333 7
	cmp	r3, #0
	beq	.L105
	.loc 1 1335 32
	ldr	r3, .L106
	movs	r2, #1
	strb	r2, [r3, #1043]
.L105:
	.loc 1 1337 34
	ldr	r2, .L106
	ldrb	r3, [r2, #1153]
	orr	r3, r3, #32
	strb	r3, [r2, #1153]
	.loc 1 1338 1
	nop
	pop	{r3, pc}
.L107:
	.align	2
.L106:
	.word	MacCtx
	.word	Radio
.LFE9:
	.size	ProcessRadioTxTimeout, .-ProcessRadioTxTimeout
	.section	.text.HandleRadioRxErrorTimeout,"ax",%progbits
	.align	1
	.syntax unified
	.thumb
	.thumb_func
	.fpu fpv4-sp-d16
	.type	HandleRadioRxErrorTimeout, %function
HandleRadioRxErrorTimeout:
.LFB10:
	.loc 1 1341 1
	@ args = 0, pretend = 0, frame = 16
	@ frame_needed = 0, uses_anonymous_args = 0
	push	{lr}
.LCFI17:
	sub	sp, sp, #20
.LCFI18:
	mov	r3, r0
	mov	r2, r1
	strb	r3, [sp, #7]
	mov	r3, r2
	strb	r3, [sp, #6]
	.loc 1 1342 10
	movs	r3, #0
	strb	r3, [sp, #15]
	.loc 1 1344 15
	ldr	r3, .L117
	ldr	r3, [r3, #1156]
	.loc 1 1344 22
	ldrb	r3, [r3, #240]	@ zero_extendqisi2
	.loc 1 1344 7
	cmp	r3, #2
	beq	.L109
	.loc 1 1346 14
	ldr	r3, .L117+4
	ldr	r3, [r3, #44]
	.loc 1 1346 9
	blx	r3
.LVL8:
.L109:
	.loc 1 1349 9
	bl	LoRaMacClassBIsBeaconExpected
	mov	r3, r0
	.loc 1 1349 7
	cmp	r3, #0
	beq	.L110
	.loc 1 1351 9
	movs	r0, #2
	bl	LoRaMacClassBSetBeaconState
	.loc 1 1352 9
	movs	r0, #0
	bl	LoRaMacClassBBeaconTimerEvent
	.loc 1 1353 18
	movs	r3, #1
	strb	r3, [sp, #15]
.L110:
	.loc 1 1355 15
	ldr	r3, .L117
	ldr	r3, [r3, #1156]
	.loc 1 1355 22
	ldrb	r3, [r3, #240]	@ zero_extendqisi2
	.loc 1 1355 7
	cmp	r3, #1
	bne	.L111
	.loc 1 1357 13
	bl	LoRaMacClassBIsPingExpected
	mov	r3, r0
	.loc 1 1357 11
	cmp	r3, #0
	beq	.L112
	.loc 1 1359 13
	movs	r0, #0
	bl	LoRaMacClassBSetPingSlotState
	.loc 1 1360 13
	movs	r0, #0
	bl	LoRaMacClassBPingSlotTimerEvent
	.loc 1 1361 22
	movs	r3, #1
	strb	r3, [sp, #15]
.L112:
	.loc 1 1363 13
	bl	LoRaMacClassBIsMulticastExpected
	mov	r3, r0
	.loc 1 1363 11
	cmp	r3, #0
	beq	.L111
	.loc 1 1365 13
	movs	r0, #0
	bl	LoRaMacClassBSetMulticastSlotState
	.loc 1 1366 13
	movs	r0, #0
	bl	LoRaMacClassBMulticastSlotTimerEvent
	.loc 1 1367 22
	movs	r3, #1
	strb	r3, [sp, #15]
.L111:
	.loc 1 1371 18
	ldrb	r3, [sp, #15]
	eor	r3, r3, #1
	uxtb	r3, r3
	.loc 1 1371 7
	cmp	r3, #0
	beq	.L113
	.loc 1 1373 19
	ldr	r3, .L117
	ldrb	r3, [r3, #1152]	@ zero_extendqisi2
	.loc 1 1373 11
	cmp	r3, #0
	bne	.L114
	.loc 1 1375 23
	ldr	r3, .L117
	ldrb	r3, [r3, #1044]	@ zero_extendqisi2
	.loc 1 1375 15
	cmp	r3, #0
	beq	.L115
	.loc 1 1377 43
	ldr	r2, .L117
	ldrb	r3, [sp, #7]
	strb	r3, [r2, #1085]
.L115:
	.loc 1 1379 13
	ldrb	r3, [sp, #7]	@ zero_extendqisi2
	mov	r0, r3
	bl	LoRaMacConfirmQueueSetStatusCmn
	.loc 1 1381 44
	ldr	r3, .L117
	ldr	r3, [r3, #1156]
	.loc 1 1381 17
	ldr	r3, [r3, #452]
	mov	r0, r3
	bl	TimerGetElapsedTime
	mov	r2, r0
	.loc 1 1381 79
	ldr	r3, .L117
	ldr	r3, [r3, #948]
	.loc 1 1381 15
	cmp	r2, r3
	bcc	.L113
	.loc 1 1383 17
	ldr	r0, .L117+8
	bl	TimerStop
	.loc 1 1384 46
	ldr	r2, .L117
	ldrb	r3, [r2, #1153]
	orr	r3, r3, #32
	strb	r3, [r2, #1153]
	b	.L113
.L114:
	.loc 1 1389 23
	ldr	r3, .L117
	ldrb	r3, [r3, #1044]	@ zero_extendqisi2
	.loc 1 1389 15
	cmp	r3, #0
	beq	.L116
	.loc 1 1391 43
	ldr	r2, .L117
	ldrb	r3, [sp, #6]
	strb	r3, [r2, #1085]
.L116:
	.loc 1 1393 13
	ldrb	r3, [sp, #6]	@ zero_extendqisi2
	mov	r0, r3
	bl	LoRaMacConfirmQueueSetStatusCmn
	.loc 1 1395 23
	ldr	r3, .L117
	ldr	r3, [r3, #1156]
	.loc 1 1395 30
	ldrb	r3, [r3, #240]	@ zero_extendqisi2
	.loc 1 1395 15
	cmp	r3, #2
	beq	.L113
	.loc 1 1397 46
	ldr	r2, .L117
	ldrb	r3, [r2, #1153]
	orr	r3, r3, #32
	strb	r3, [r2, #1153]
.L113:
	.loc 1 1402 5
	bl	UpdateRxSlotIdleState
	.loc 1 1403 1
	nop
	add	sp, sp, #20
.LCFI19:
	@ sp needed
	ldr	pc, [sp], #4
.L118:
	.align	2
.L117:
	.word	MacCtx
	.word	Radio
	.word	MacCtx+920
.LFE10:
	.size	HandleRadioRxErrorTimeout, .-HandleRadioRxErrorTimeout
	.section	.text.ProcessRadioRxError,"ax",%progbits
	.align	1
	.syntax unified
	.thumb
	.thumb_func
	.fpu fpv4-sp-d16
	.type	ProcessRadioRxError, %function
ProcessRadioRxError:
.LFB11:
	.loc 1 1406 1
	@ args = 0, pretend = 0, frame = 0
	@ frame_needed = 0, uses_anonymous_args = 0
	push	{r3, lr}
.LCFI20:
	.loc 1 1407 5
	movs	r1, #6
	movs	r0, #5
	bl	HandleRadioRxErrorTimeout
	.loc 1 1408 1
	nop
	pop	{r3, pc}
.LFE11:
	.size	ProcessRadioRxError, .-ProcessRadioRxError
	.section	.text.ProcessRadioRxTimeout,"ax",%progbits
	.align	1
	.syntax unified
	.thumb
	.thumb_func
	.fpu fpv4-sp-d16
	.type	ProcessRadioRxTimeout, %function
ProcessRadioRxTimeout:
.LFB12:
	.loc 1 1411 1
	@ args = 0, pretend = 0, frame = 0
	@ frame_needed = 0, uses_anonymous_args = 0
	push	{r3, lr}
.LCFI21:
	.loc 1 1412 5
	movs	r1, #4
	movs	r0, #3
	bl	HandleRadioRxErrorTimeout
	.loc 1 1413 1
	nop
	pop	{r3, pc}
.LFE12:
	.size	ProcessRadioRxTimeout, .-ProcessRadioRxTimeout
	.section	.text.LoRaMacHandleIrqEvents,"ax",%progbits
	.align	1
	.syntax unified
	.thumb
	.thumb_func
	.fpu fpv4-sp-d16
	.type	LoRaMacHandleIrqEvents, %function
LoRaMacHandleIrqEvents:
.LFB13:
	.loc 1 1416 1
	@ args = 0, pretend = 0, frame = 8
	@ frame_needed = 0, uses_anonymous_args = 0
	push	{lr}
.LCFI22:
	sub	sp, sp, #12
.LCFI23:
	.loc 1 1419 5
	mov	r3, sp
	mov	r0, r3
	bl	BoardCriticalSectionBegin
	.loc 1 1420 12
	ldr	r3, .L128
	ldr	r3, [r3]
	str	r3, [sp, #4]
	.loc 1 1421 30
	ldr	r3, .L128
	movs	r2, #0
	str	r2, [r3]
	.loc 1 1422 5
	mov	r3, sp
	mov	r0, r3
	bl	BoardCriticalSectionEnd
	.loc 1 1424 15
	ldr	r3, [sp, #4]
	.loc 1 1424 7
	cmp	r3, #0
	beq	.L127
	.loc 1 1426 34
	ldrb	r3, [sp, #4]	@ zero_extendqisi2
	and	r3, r3, #16
	uxtb	r3, r3
	.loc 1 1426 11
	cmp	r3, #0
	beq	.L123
	.loc 1 1428 13
	bl	ProcessRadioTxDone
.L123:
	.loc 1 1430 34
	ldrb	r3, [sp, #4]	@ zero_extendqisi2
	and	r3, r3, #8
	uxtb	r3, r3
	.loc 1 1430 11
	cmp	r3, #0
	beq	.L124
	.loc 1 1432 13
	bl	ProcessRadioRxDone
.L124:
	.loc 1 1434 37
	ldrb	r3, [sp, #4]	@ zero_extendqisi2
	and	r3, r3, #4
	uxtb	r3, r3
	.loc 1 1434 11
	cmp	r3, #0
	beq	.L125
	.loc 1 1436 13
	bl	ProcessRadioTxTimeout
.L125:
	.loc 1 1438 35
	ldrb	r3, [sp, #4]	@ zero_extendqisi2
	and	r3, r3, #2
	uxtb	r3, r3
	.loc 1 1438 11
	cmp	r3, #0
	beq	.L126
	.loc 1 1440 13
	bl	ProcessRadioRxError
.L126:
	.loc 1 1442 37
	ldrb	r3, [sp, #4]	@ zero_extendqisi2
	and	r3, r3, #1
	uxtb	r3, r3
	.loc 1 1442 11
	cmp	r3, #0
	beq	.L127
	.loc 1 1444 13
	bl	ProcessRadioRxTimeout
.L127:
	.loc 1 1447 1
	nop
	add	sp, sp, #12
.LCFI24:
	@ sp needed
	ldr	pc, [sp], #4
.L129:
	.align	2
.L128:
	.word	LoRaMacRadioEvents
.LFE13:
	.size	LoRaMacHandleIrqEvents, .-LoRaMacHandleIrqEvents
	.section	.text.LoRaMacIsBusy,"ax",%progbits
	.align	1
	.global	LoRaMacIsBusy
	.syntax unified
	.thumb
	.thumb_func
	.fpu fpv4-sp-d16
	.type	LoRaMacIsBusy, %function
LoRaMacIsBusy:
.LFB14:
	.loc 1 1450 1
	@ args = 0, pretend = 0, frame = 0
	@ frame_needed = 0, uses_anonymous_args = 0
	@ link register save eliminated.
	.loc 1 1451 17
	ldr	r3, .L133
	ldr	r3, [r3, #832]
	.loc 1 1451 7
	cmp	r3, #0
	bne	.L131
	.loc 1 1452 17 discriminator 1
	ldr	r3, .L133
	ldrb	r3, [r3, #1154]	@ zero_extendqisi2
	.loc 1 1451 45 discriminator 1
	cmp	r3, #1
	bne	.L131
	.loc 1 1454 16
	movs	r3, #0
	b	.L132
.L131:
	.loc 1 1456 12
	movs	r3, #1
.L132:
	.loc 1 1457 1
	mov	r0, r3
	bx	lr
.L134:
	.align	2
.L133:
	.word	MacCtx
.LFE14:
	.size	LoRaMacIsBusy, .-LoRaMacIsBusy
	.section	.text.LoRaMacEnableRequests,"ax",%progbits
	.align	1
	.syntax unified
	.thumb
	.thumb_func
	.fpu fpv4-sp-d16
	.type	LoRaMacEnableRequests, %function
LoRaMacEnableRequests:
.LFB15:
	.loc 1 1461 1
	@ args = 0, pretend = 0, frame = 8
	@ frame_needed = 0, uses_anonymous_args = 0
	@ link register save eliminated.
	sub	sp, sp, #8
.LCFI25:
	mov	r3, r0
	strb	r3, [sp, #7]
	.loc 1 1462 26
	ldr	r2, .L136
	ldrb	r3, [sp, #7]
	strb	r3, [r2, #1154]
	.loc 1 1463 1
	nop
	add	sp, sp, #8
.LCFI26:
	@ sp needed
	bx	lr
.L137:
	.align	2
.L136:
	.word	MacCtx
.LFE15:
	.size	LoRaMacEnableRequests, .-LoRaMacEnableRequests
	.section	.text.LoRaMacHandleRequestEvents,"ax",%progbits
	.align	1
	.syntax unified
	.thumb
	.thumb_func
	.fpu fpv4-sp-d16
	.type	LoRaMacHandleRequestEvents, %function
LoRaMacHandleRequestEvents:
.LFB16:
	.loc 1 1466 1
	@ args = 0, pretend = 0, frame = 8
	@ frame_needed = 0, uses_anonymous_args = 0
	push	{lr}
.LCFI27:
	sub	sp, sp, #12
.LCFI28:
	.loc 1 1468 20
	ldr	r3, .L145
	ldrb	r3, [r3, #1153]
	strb	r3, [sp, #4]
	.loc 1 1470 15
	ldr	r3, .L145
	ldr	r3, [r3, #832]
	.loc 1 1470 7
	cmp	r3, #0
	bne	.L144
	.loc 1 1473 42
	ldr	r3, .L145
	ldrb	r3, [r3, #1153]	@ zero_extendqisi2
	and	r3, r3, #1
	uxtb	r3, r3
	.loc 1 1473 11
	cmp	r3, #0
	beq	.L140
	.loc 1 1475 42
	ldr	r2, .L145
	ldrb	r3, [r2, #1153]
	bfc	r3, #0, #1
	strb	r3, [r2, #1153]
.L140:
	.loc 1 1478 42
	ldr	r3, .L145
	ldrb	r3, [r3, #1153]	@ zero_extendqisi2
	and	r3, r3, #4
	uxtb	r3, r3
	.loc 1 1478 11
	cmp	r3, #0
	beq	.L141
	.loc 1 1480 42
	ldr	r2, .L145
	ldrb	r3, [r2, #1153]
	bfc	r3, #2, #1
	strb	r3, [r2, #1153]
.L141:
	.loc 1 1484 9
	movs	r0, #1
	bl	LoRaMacEnableRequests
	.loc 1 1487 36
	ldrb	r3, [sp, #4]	@ zero_extendqisi2
	and	r3, r3, #1
	uxtb	r3, r3
	.loc 1 1487 11
	cmp	r3, #0
	beq	.L142
	.loc 1 1489 19
	ldr	r3, .L145
	ldr	r3, [r3, #836]
	.loc 1 1489 33
	ldr	r3, [r3]
	.loc 1 1489 13
	ldr	r0, .L145+4
	blx	r3
.LVL9:
.L142:
	.loc 1 1492 36
	ldrb	r3, [sp, #4]	@ zero_extendqisi2
	and	r3, r3, #4
	uxtb	r3, r3
	.loc 1 1492 11
	cmp	r3, #0
	beq	.L143
	.loc 1 1494 13
	ldr	r0, .L145+8
	bl	LoRaMacConfirmQueueHandleCb
	.loc 1 1495 17
	bl	LoRaMacConfirmQueueGetCnt
	mov	r3, r0
	.loc 1 1495 15
	cmp	r3, #0
	beq	.L143
	.loc 1 1497 46
	ldr	r2, .L145
	ldrb	r3, [r2, #1153]
	orr	r3, r3, #4
	strb	r3, [r2, #1153]
.L143:
	.loc 1 1502 9
	bl	LoRaMacClassBResumeBeaconing
	.loc 1 1505 38
	ldr	r2, .L145
	ldrb	r3, [r2, #1153]
	bfc	r3, #5, #1
	strb	r3, [r2, #1153]
.L144:
	.loc 1 1507 1
	nop
	add	sp, sp, #12
.LCFI29:
	@ sp needed
	ldr	pc, [sp], #4
.L146:
	.align	2
.L145:
	.word	MacCtx
	.word	MacCtx+1084
	.word	MacCtx+1104
.LFE16:
	.size	LoRaMacHandleRequestEvents, .-LoRaMacHandleRequestEvents
	.section	.text.LoRaMacHandleScheduleUplinkEvent,"ax",%progbits
	.align	1
	.syntax unified
	.thumb
	.thumb_func
	.fpu fpv4-sp-d16
	.type	LoRaMacHandleScheduleUplinkEvent, %function
LoRaMacHandleScheduleUplinkEvent:
.LFB17:
	.loc 1 1510 1
	@ args = 0, pretend = 0, frame = 8
	@ frame_needed = 0, uses_anonymous_args = 0
	push	{lr}
.LCFI30:
	sub	sp, sp, #12
.LCFI31:
	.loc 1 1512 15
	ldr	r3, .L151
	ldr	r3, [r3, #832]
	.loc 1 1512 7
	cmp	r3, #0
	bne	.L150
.LBB4:
	.loc 1 1515 14
	movs	r3, #0
	strb	r3, [sp, #7]
	.loc 1 1516 9
	add	r3, sp, #7
	mov	r0, r3
	bl	LoRaMacCommandsStickyCmdsPending
	.loc 1 1517 39
	ldrb	r3, [sp, #7]	@ zero_extendqisi2
	.loc 1 1517 11
	cmp	r3, #0
	beq	.L150
	.loc 1 1519 13
	bl	SetMlmeScheduleUplinkIndication
.L150:
.LBE4:
	.loc 1 1522 1
	nop
	add	sp, sp, #12
.LCFI32:
	@ sp needed
	ldr	pc, [sp], #4
.L152:
	.align	2
.L151:
	.word	MacCtx
.LFE17:
	.size	LoRaMacHandleScheduleUplinkEvent, .-LoRaMacHandleScheduleUplinkEvent
	.section	.text.LoRaMacHandleIndicationEvents,"ax",%progbits
	.align	1
	.syntax unified
	.thumb
	.thumb_func
	.fpu fpv4-sp-d16
	.type	LoRaMacHandleIndicationEvents, %function
LoRaMacHandleIndicationEvents:
.LFB18:
	.loc 1 1525 1
	@ args = 0, pretend = 0, frame = 32
	@ frame_needed = 0, uses_anonymous_args = 0
	push	{lr}
.LCFI33:
	sub	sp, sp, #36
.LCFI34:
	.loc 1 1527 38
	ldr	r3, .L158
	ldrb	r3, [r3, #1153]	@ zero_extendqisi2
	and	r3, r3, #8
	uxtb	r3, r3
	.loc 1 1527 7
	cmp	r3, #0
	beq	.L154
	.loc 1 1529 38
	ldr	r2, .L158
	ldrb	r3, [r2, #1153]
	bfc	r3, #3, #1
	strb	r3, [r2, #1153]
	.loc 1 1530 15
	ldr	r3, .L158
	ldr	r3, [r3, #836]
	.loc 1 1530 29
	ldr	r3, [r3, #12]
	.loc 1 1530 9
	ldr	r0, .L158+4
	blx	r3
.LVL10:
.L154:
	.loc 1 1533 49
	ldr	r3, .L158
	ldrb	r3, [r3, #1153]	@ zero_extendqisi2
	and	r3, r3, #16
	uxtb	r3, r3
	.loc 1 1533 7
	cmp	r3, #0
	beq	.L155
.LBB5:
	.loc 1 1536 48
	movs	r3, #6
	strb	r3, [sp, #4]
	.loc 1 1537 40
	movs	r3, #0
	strb	r3, [sp, #5]
	.loc 1 1539 15
	ldr	r3, .L158
	ldr	r3, [r3, #836]
	.loc 1 1539 29
	ldr	r3, [r3, #12]
	.loc 1 1539 9
	add	r2, sp, #4
	mov	r0, r2
	blx	r3
.LVL11:
	.loc 1 1540 49
	ldr	r2, .L158
	ldrb	r3, [r2, #1153]
	bfc	r3, #4, #1
	strb	r3, [r2, #1153]
.L155:
.LBE5:
	.loc 1 1544 38
	ldr	r3, .L158
	ldrb	r3, [r3, #1153]	@ zero_extendqisi2
	and	r3, r3, #2
	uxtb	r3, r3
	.loc 1 1544 7
	cmp	r3, #0
	beq	.L157
	.loc 1 1546 38
	ldr	r2, .L158
	ldrb	r3, [r2, #1153]
	bfc	r3, #1, #1
	strb	r3, [r2, #1153]
	.loc 1 1547 15
	ldr	r3, .L158
	ldr	r3, [r3, #836]
	.loc 1 1547 29
	ldr	r3, [r3, #4]
	.loc 1 1547 9
	ldr	r0, .L158+8
	blx	r3
.LVL12:
.L157:
	.loc 1 1549 1
	nop
	add	sp, sp, #36
.LCFI35:
	@ sp needed
	ldr	pc, [sp], #4
.L159:
	.align	2
.L158:
	.word	MacCtx
	.word	MacCtx+1124
	.word	MacCtx+1052
.LFE18:
	.size	LoRaMacHandleIndicationEvents, .-LoRaMacHandleIndicationEvents
	.section	.text.LoRaMacHandleMcpsRequest,"ax",%progbits
	.align	1
	.syntax unified
	.thumb
	.thumb_func
	.fpu fpv4-sp-d16
	.type	LoRaMacHandleMcpsRequest, %function
LoRaMacHandleMcpsRequest:
.LFB19:
	.loc 1 1552 1
	@ args = 0, pretend = 0, frame = 8
	@ frame_needed = 0, uses_anonymous_args = 0
	push	{lr}
.LCFI36:
	sub	sp, sp, #12
.LCFI37:
	.loc 1 1554 38
	ldr	r3, .L169
	ldrb	r3, [r3, #1153]	@ zero_extendqisi2
	and	r3, r3, #1
	uxtb	r3, r3
	.loc 1 1554 7
	cmp	r3, #0
	beq	.L168
.LBB6:
	.loc 1 1556 14
	movs	r3, #0
	strb	r3, [sp, #7]
	.loc 1 1557 14
	movs	r3, #0
	strb	r3, [sp, #6]
	.loc 1 1559 33
	ldr	r3, .L169
	ldrb	r3, [r3, #1084]	@ zero_extendqisi2
	.loc 1 1559 11
	cmp	r3, #0
	beq	.L162
	.loc 1 1560 33 discriminator 1
	ldr	r3, .L169
	ldrb	r3, [r3, #1084]	@ zero_extendqisi2
	.loc 1 1559 68 discriminator 1
	cmp	r3, #3
	bne	.L163
.L162:
	.loc 1 1562 34
	bl	CheckRetransUnconfirmedUplink
	mov	r3, r0
	strb	r3, [sp, #7]
	.loc 1 1562 32
	b	.L164
.L163:
	.loc 1 1564 36
	ldr	r3, .L169
	ldrb	r3, [r3, #1084]	@ zero_extendqisi2
	.loc 1 1564 16
	cmp	r3, #1
	bne	.L164
	.loc 1 1566 23
	ldr	r3, .L169
	ldrb	r3, [r3, #1043]	@ zero_extendqisi2
	.loc 1 1566 15
	cmp	r3, #0
	beq	.L165
	.loc 1 1568 38
	bl	CheckRetransConfirmedUplink
	mov	r3, r0
	strb	r3, [sp, #7]
	.loc 1 1570 27
	ldr	r3, .L169
	ldr	r3, [r3, #1156]
	.loc 1 1570 50
	ldrb	r3, [r3, #470]	@ zero_extendqisi2
	.loc 1 1570 19
	cmp	r3, #0
	bne	.L164
	.loc 1 1572 44
	ldrb	r3, [sp, #7]
	eor	r3, r3, #1
	uxtb	r3, r3
	.loc 1 1572 23
	cmp	r3, #0
	beq	.L166
	.loc 1 1574 25
	bl	AckTimeoutRetriesProcess
	b	.L164
.L166:
	.loc 1 1578 25
	bl	AckTimeoutRetriesFinalize
	b	.L164
.L165:
	.loc 1 1584 39
	movs	r3, #1
	strb	r3, [sp, #6]
.L164:
	.loc 1 1588 11
	ldrb	r3, [sp, #7]	@ zero_extendqisi2
	cmp	r3, #0
	beq	.L167
	.loc 1 1590 13
	ldr	r0, .L169+4
	bl	TimerStop
	.loc 1 1591 29
	ldr	r3, .L169
	ldr	r3, [r3, #832]
	bic	r3, r3, #32
	ldr	r2, .L169
	str	r3, [r2, #832]
	.loc 1 1592 13
	bl	StopRetransmission
.LBE6:
	.loc 1 1603 1
	b	.L168
.L167:
.LBB7:
	.loc 1 1594 40
	ldrb	r3, [sp, #6]
	eor	r3, r3, #1
	uxtb	r3, r3
	.loc 1 1594 16
	cmp	r3, #0
	beq	.L168
	.loc 1 1596 42
	ldr	r2, .L169
	ldrb	r3, [r2, #1153]
	bfc	r3, #5, #1
	strb	r3, [r2, #1153]
	.loc 1 1598 36
	ldr	r3, .L169
	movs	r2, #0
	strb	r2, [r3, #1043]
	.loc 1 1600 13
	movs	r0, #0
	bl	OnTxDelayedTimerEvent
.L168:
.LBE7:
	.loc 1 1603 1
	nop
	add	sp, sp, #12
.LCFI38:
	@ sp needed
	ldr	pc, [sp], #4
.L170:
	.align	2
.L169:
	.word	MacCtx
	.word	MacCtx+872
.LFE19:
	.size	LoRaMacHandleMcpsRequest, .-LoRaMacHandleMcpsRequest
	.section	.text.LoRaMacHandleMlmeRequest,"ax",%progbits
	.align	1
	.syntax unified
	.thumb
	.thumb_func
	.fpu fpv4-sp-d16
	.type	LoRaMacHandleMlmeRequest, %function
LoRaMacHandleMlmeRequest:
.LFB20:
	.loc 1 1606 1
	@ args = 0, pretend = 0, frame = 0
	@ frame_needed = 0, uses_anonymous_args = 0
	push	{r3, lr}
.LCFI39:
	.loc 1 1608 38
	ldr	r3, .L177
	ldrb	r3, [r3, #1153]	@ zero_extendqisi2
	and	r3, r3, #4
	uxtb	r3, r3
	.loc 1 1608 7
	cmp	r3, #0
	beq	.L176
	.loc 1 1610 15
	movs	r0, #0
	bl	LoRaMacConfirmQueueIsCmdActive
	mov	r3, r0
	.loc 1 1610 11
	cmp	r3, #0
	beq	.L173
	.loc 1 1612 17
	movs	r0, #0
	bl	LoRaMacConfirmQueueGetStatus
	mov	r3, r0
	.loc 1 1612 15
	cmp	r3, #0
	bne	.L174
	.loc 1 1614 47
	ldr	r3, .L177
	movs	r2, #0
	strb	r2, [r3, #1040]
.L174:
	.loc 1 1616 29
	ldr	r3, .L177
	ldr	r3, [r3, #832]
	bic	r3, r3, #2
	ldr	r2, .L177
	str	r3, [r2, #832]
	.loc 1 1624 1
	b	.L176
.L173:
	.loc 1 1618 20
	movs	r0, #4
	bl	LoRaMacConfirmQueueIsCmdActive
	mov	r3, r0
	.loc 1 1618 16
	cmp	r3, #0
	bne	.L175
	.loc 1 1619 20 discriminator 1
	movs	r0, #5
	bl	LoRaMacConfirmQueueIsCmdActive
	mov	r3, r0
	.loc 1 1618 74 discriminator 1
	cmp	r3, #0
	beq	.L176
.L175:
	.loc 1 1621 29
	ldr	r3, .L177
	ldr	r3, [r3, #832]
	bic	r3, r3, #2
	ldr	r2, .L177
	str	r3, [r2, #832]
.L176:
	.loc 1 1624 1
	nop
	pop	{r3, pc}
.L178:
	.align	2
.L177:
	.word	MacCtx
.LFE20:
	.size	LoRaMacHandleMlmeRequest, .-LoRaMacHandleMlmeRequest
	.section	.text.LoRaMacCheckForBeaconAcquisition,"ax",%progbits
	.align	1
	.syntax unified
	.thumb
	.thumb_func
	.fpu fpv4-sp-d16
	.type	LoRaMacCheckForBeaconAcquisition, %function
LoRaMacCheckForBeaconAcquisition:
.LFB21:
	.loc 1 1627 1
	@ args = 0, pretend = 0, frame = 0
	@ frame_needed = 0, uses_anonymous_args = 0
	push	{r3, lr}
.LCFI40:
	.loc 1 1628 11
	movs	r0, #11
	bl	LoRaMacConfirmQueueIsCmdActive
	mov	r3, r0
	.loc 1 1628 7
	cmp	r3, #0
	beq	.L180
	.loc 1 1629 40 discriminator 1
	ldr	r3, .L182
	ldrb	r3, [r3, #1153]	@ zero_extendqisi2
	and	r3, r3, #1
	uxtb	r3, r3
	.loc 1 1628 79 discriminator 1
	cmp	r3, #0
	bne	.L180
	.loc 1 1631 42
	ldr	r3, .L182
	ldrb	r3, [r3, #1153]	@ zero_extendqisi2
	and	r3, r3, #4
	uxtb	r3, r3
	.loc 1 1631 11
	cmp	r3, #0
	beq	.L180
	.loc 1 1633 29
	ldr	r3, .L182
	ldr	r3, [r3, #832]
	bic	r3, r3, #2
	ldr	r2, .L182
	str	r3, [r2, #832]
	.loc 1 1634 20
	movs	r3, #1
	b	.L181
.L180:
	.loc 1 1637 12
	movs	r3, #0
.L181:
	.loc 1 1638 1
	mov	r0, r3
	pop	{r3, pc}
.L183:
	.align	2
.L182:
	.word	MacCtx
.LFE21:
	.size	LoRaMacCheckForBeaconAcquisition, .-LoRaMacCheckForBeaconAcquisition
	.section	.text.LoRaMacCheckForRxAbort,"ax",%progbits
	.align	1
	.syntax unified
	.thumb
	.thumb_func
	.fpu fpv4-sp-d16
	.type	LoRaMacCheckForRxAbort, %function
LoRaMacCheckForRxAbort:
.LFB22:
	.loc 1 1641 1
	@ args = 0, pretend = 0, frame = 0
	@ frame_needed = 0, uses_anonymous_args = 0
	@ link register save eliminated.
	.loc 1 1643 17
	ldr	r3, .L187
	ldr	r3, [r3, #832]
	.loc 1 1643 27
	and	r3, r3, #128
	.loc 1 1643 7
	cmp	r3, #0
	beq	.L186
	.loc 1 1645 25
	ldr	r3, .L187
	ldr	r3, [r3, #832]
	bic	r3, r3, #128
	ldr	r2, .L187
	str	r3, [r2, #832]
	.loc 1 1646 25
	ldr	r3, .L187
	ldr	r3, [r3, #832]
	bic	r3, r3, #2
	ldr	r2, .L187
	str	r3, [r2, #832]
.L186:
	.loc 1 1648 1
	nop
	bx	lr
.L188:
	.align	2
.L187:
	.word	MacCtx
.LFE22:
	.size	LoRaMacCheckForRxAbort, .-LoRaMacCheckForRxAbort
	.section	.text.LoRaMacProcess,"ax",%progbits
	.align	1
	.global	LoRaMacProcess
	.syntax unified
	.thumb
	.thumb_func
	.fpu fpv4-sp-d16
	.type	LoRaMacProcess, %function
LoRaMacProcess:
.LFB23:
	.loc 1 1652 1
	@ args = 0, pretend = 0, frame = 8
	@ frame_needed = 0, uses_anonymous_args = 0
	push	{lr}
.LCFI41:
	sub	sp, sp, #12
.LCFI42:
	.loc 1 1653 13
	movs	r3, #0
	strb	r3, [sp, #7]
	.loc 1 1655 5
	bl	LoRaMacHandleIrqEvents
	.loc 1 1656 5
	bl	LoRaMacClassBProcess
	.loc 1 1659 38
	ldr	r3, .L195
	ldrb	r3, [r3, #1153]	@ zero_extendqisi2
	and	r3, r3, #32
	uxtb	r3, r3
	.loc 1 1659 7
	cmp	r3, #0
	beq	.L190
	.loc 1 1661 9
	movs	r0, #0
	bl	LoRaMacEnableRequests
	.loc 1 1662 9
	bl	LoRaMacCheckForRxAbort
	.loc 1 1665 13
	bl	IsRequestPending
	mov	r3, r0
	.loc 1 1665 11
	cmp	r3, #0
	beq	.L191
	.loc 1 1667 21
	bl	LoRaMacCheckForBeaconAcquisition
	mov	r3, r0
	mov	r2, r3
	.loc 1 1667 18
	ldrb	r3, [sp, #7]
	orrs	r3, r3, r2
	strb	r3, [sp, #7]
.L191:
	.loc 1 1670 11
	ldrb	r3, [sp, #7]	@ zero_extendqisi2
	cmp	r3, #0
	bne	.L192
	.loc 1 1672 13
	bl	LoRaMacHandleMlmeRequest
	.loc 1 1673 13
	bl	LoRaMacHandleMcpsRequest
.L192:
	.loc 1 1675 9
	bl	LoRaMacHandleRequestEvents
	.loc 1 1676 9
	bl	LoRaMacHandleScheduleUplinkEvent
	.loc 1 1677 9
	movs	r0, #1
	bl	LoRaMacEnableRequests
.L190:
	.loc 1 1679 5
	bl	LoRaMacHandleIndicationEvents
	.loc 1 1680 15
	ldr	r3, .L195
	ldrb	r3, [r3, #1152]	@ zero_extendqisi2
	.loc 1 1680 7
	cmp	r3, #2
	bne	.L194
	.loc 1 1682 9
	bl	OpenContinuousRxCWindow
.L194:
	.loc 1 1684 1
	nop
	add	sp, sp, #12
.LCFI43:
	@ sp needed
	ldr	pc, [sp], #4
.L196:
	.align	2
.L195:
	.word	MacCtx
.LFE23:
	.size	LoRaMacProcess, .-LoRaMacProcess
	.section	.text.OnTxDelayedTimerEvent,"ax",%progbits
	.align	1
	.syntax unified
	.thumb
	.thumb_func
	.fpu fpv4-sp-d16
	.type	OnTxDelayedTimerEvent, %function
OnTxDelayedTimerEvent:
.LFB24:
	.loc 1 1687 1
	@ args = 0, pretend = 0, frame = 8
	@ frame_needed = 0, uses_anonymous_args = 0
	push	{lr}
.LCFI44:
	sub	sp, sp, #12
.LCFI45:
	str	r0, [sp, #4]
	.loc 1 1688 5
	ldr	r0, .L202
	bl	TimerStop
	.loc 1 1689 21
	ldr	r3, .L202+4
	ldr	r3, [r3, #832]
	bic	r3, r3, #32
	ldr	r2, .L202+4
	str	r3, [r2, #832]
	.loc 1 1692 13
	movs	r0, #1
	bl	ScheduleTx
	mov	r3, r0
	.loc 1 1692 5
	cmp	r3, #0
	beq	.L201
	cmp	r3, #11
	beq	.L201
	.loc 1 1702 49
	ldr	r3, .L202+4
	ldr	r3, [r3, #1156]
	.loc 1 1702 67
	ldrsb	r3, [r3, #249]
	uxtb	r2, r3
	.loc 1 1702 41
	ldr	r3, .L202+4
	strb	r2, [r3, #1086]
	.loc 1 1703 50
	ldr	r3, .L202+4
	ldrb	r2, [r3, #1042]	@ zero_extendqisi2
	.loc 1 1703 42
	ldr	r3, .L202+4
	strb	r2, [r3, #1089]
	.loc 1 1704 39
	ldr	r3, .L202+4
	movs	r2, #9
	strb	r2, [r3, #1085]
	.loc 1 1705 13
	movs	r0, #9
	bl	LoRaMacConfirmQueueSetStatusCmn
	.loc 1 1706 13
	bl	StopRetransmission
	.loc 1 1707 13
	b	.L200
.L201:
	.loc 1 1697 13
	nop
.L200:
	.loc 1 1710 1
	nop
	add	sp, sp, #12
.LCFI46:
	@ sp needed
	ldr	pc, [sp], #4
.L203:
	.align	2
.L202:
	.word	MacCtx+872
	.word	MacCtx
.LFE24:
	.size	OnTxDelayedTimerEvent, .-OnTxDelayedTimerEvent
	.section	.text.OnRxWindow1TimerEvent,"ax",%progbits
	.align	1
	.syntax unified
	.thumb
	.thumb_func
	.fpu fpv4-sp-d16
	.type	OnRxWindow1TimerEvent, %function
OnRxWindow1TimerEvent:
.LFB25:
	.loc 1 1713 1
	@ args = 0, pretend = 0, frame = 8
	@ frame_needed = 0, uses_anonymous_args = 0
	push	{lr}
.LCFI47:
	sub	sp, sp, #12
.LCFI48:
	str	r0, [sp, #4]
	.loc 1 1714 44
	ldr	r3, .L205
	ldrb	r2, [r3, #1045]	@ zero_extendqisi2
	.loc 1 1714 36
	ldr	r3, .L205
	strb	r2, [r3, #952]
	.loc 1 1715 45
	ldr	r3, .L205
	ldr	r3, [r3, #1156]
	.loc 1 1715 63
	ldrb	r3, [r3, #281]	@ zero_extendqisi2
	sxtb	r2, r3
	.loc 1 1715 37
	ldr	r3, .L205
	strb	r2, [r3, #955]
	.loc 1 1716 54
	ldr	r3, .L205
	ldr	r3, [r3, #1156]
	.loc 1 1716 72
	ldrb	r2, [r3, #301]	@ zero_extendqisi2
	.loc 1 1716 46
	ldr	r3, .L205
	strb	r2, [r3, #968]
	.loc 1 1717 52
	ldr	r3, .L205
	ldr	r3, [r3, #1156]
	.loc 1 1717 59
	ldrb	r2, [r3, #319]	@ zero_extendqisi2
	.loc 1 1717 44
	ldr	r3, .L205
	strb	r2, [r3, #969]
	.loc 1 1718 41
	ldr	r3, .L205
	movs	r2, #0
	strb	r2, [r3, #970]
	.loc 1 1719 35
	ldr	r3, .L205
	movs	r2, #0
	strb	r2, [r3, #971]
	.loc 1 1721 5
	ldr	r1, .L205+4
	ldr	r0, .L205+8
	bl	RxWindowSetup
	.loc 1 1722 1
	nop
	add	sp, sp, #12
.LCFI49:
	@ sp needed
	ldr	pc, [sp], #4
.L206:
	.align	2
.L205:
	.word	MacCtx
	.word	MacCtx+952
	.word	MacCtx+896
.LFE25:
	.size	OnRxWindow1TimerEvent, .-OnRxWindow1TimerEvent
	.section	.text.OnRxWindow2TimerEvent,"ax",%progbits
	.align	1
	.syntax unified
	.thumb
	.thumb_func
	.fpu fpv4-sp-d16
	.type	OnRxWindow2TimerEvent, %function
OnRxWindow2TimerEvent:
.LFB26:
	.loc 1 1725 1
	@ args = 0, pretend = 0, frame = 8
	@ frame_needed = 0, uses_anonymous_args = 0
	push	{lr}
.LCFI50:
	sub	sp, sp, #12
.LCFI51:
	str	r0, [sp, #4]
	.loc 1 1728 15
	ldr	r3, .L211
	ldrb	r3, [r3, #1152]	@ zero_extendqisi2
	.loc 1 1728 7
	cmp	r3, #0
	beq	.L210
	.loc 1 1732 44
	ldr	r3, .L211
	ldrb	r2, [r3, #1045]	@ zero_extendqisi2
	.loc 1 1732 36
	ldr	r3, .L211
	strb	r2, [r3, #972]
	.loc 1 1733 46
	ldr	r3, .L211
	ldr	r3, [r3, #1156]
	.loc 1 1733 75
	ldr	r3, [r3, #284]
	.loc 1 1733 38
	ldr	r2, .L211
	str	r3, [r2, #976]
	.loc 1 1734 54
	ldr	r3, .L211
	ldr	r3, [r3, #1156]
	.loc 1 1734 72
	ldrb	r2, [r3, #301]	@ zero_extendqisi2
	.loc 1 1734 46
	ldr	r3, .L211
	strb	r2, [r3, #988]
	.loc 1 1735 52
	ldr	r3, .L211
	ldr	r3, [r3, #1156]
	.loc 1 1735 59
	ldrb	r2, [r3, #319]	@ zero_extendqisi2
	.loc 1 1735 44
	ldr	r3, .L211
	strb	r2, [r3, #989]
	.loc 1 1736 41
	ldr	r3, .L211
	movs	r2, #0
	strb	r2, [r3, #990]
	.loc 1 1737 35
	ldr	r3, .L211
	movs	r2, #1
	strb	r2, [r3, #991]
	.loc 1 1739 5
	ldr	r1, .L211+4
	ldr	r0, .L211+8
	bl	RxWindowSetup
	b	.L207
.L210:
	.loc 1 1730 9
	nop
.L207:
	.loc 1 1740 1
	add	sp, sp, #12
.LCFI52:
	@ sp needed
	ldr	pc, [sp], #4
.L212:
	.align	2
.L211:
	.word	MacCtx
	.word	MacCtx+972
	.word	MacCtx+920
.LFE26:
	.size	OnRxWindow2TimerEvent, .-OnRxWindow2TimerEvent
	.section	.text.OnAckTimeoutTimerEvent,"ax",%progbits
	.align	1
	.syntax unified
	.thumb
	.thumb_func
	.fpu fpv4-sp-d16
	.type	OnAckTimeoutTimerEvent, %function
OnAckTimeoutTimerEvent:
.LFB27:
	.loc 1 1743 1
	@ args = 0, pretend = 0, frame = 8
	@ frame_needed = 0, uses_anonymous_args = 0
	push	{lr}
.LCFI53:
	sub	sp, sp, #12
.LCFI54:
	str	r0, [sp, #4]
	.loc 1 1744 5
	ldr	r0, .L218
	bl	TimerStop
	.loc 1 1746 15
	ldr	r3, .L218+4
	ldrb	r3, [r3, #1044]	@ zero_extendqisi2
	.loc 1 1746 7
	cmp	r3, #0
	beq	.L214
	.loc 1 1748 32
	ldr	r3, .L218+4
	movs	r2, #1
	strb	r2, [r3, #1043]
.L214:
	.loc 1 1750 15
	ldr	r3, .L218+4
	ldr	r3, [r3, #1156]
	.loc 1 1750 22
	ldrb	r3, [r3, #240]	@ zero_extendqisi2
	.loc 1 1750 7
	cmp	r3, #2
	bne	.L215
	.loc 1 1752 38
	ldr	r2, .L218+4
	ldrb	r3, [r2, #1153]
	orr	r3, r3, #32
	strb	r3, [r2, #1153]
.L215:
	.loc 1 1754 17
	ldr	r3, .L218+4
	ldr	r3, [r3, #840]
	.loc 1 1754 7
	cmp	r3, #0
	beq	.L217
	.loc 1 1754 52 discriminator 1
	ldr	r3, .L218+4
	ldr	r3, [r3, #840]
	.loc 1 1754 65 discriminator 1
	ldr	r3, [r3, #12]
	.loc 1 1754 41 discriminator 1
	cmp	r3, #0
	beq	.L217
	.loc 1 1756 15
	ldr	r3, .L218+4
	ldr	r3, [r3, #840]
	.loc 1 1756 28
	ldr	r3, [r3, #12]
	.loc 1 1756 9
	blx	r3
.LVL13:
.L217:
	.loc 1 1758 1
	nop
	add	sp, sp, #12
.LCFI55:
	@ sp needed
	ldr	pc, [sp], #4
.L219:
	.align	2
.L218:
	.word	MacCtx+1016
	.word	MacCtx
.LFE27:
	.size	OnAckTimeoutTimerEvent, .-OnAckTimeoutTimerEvent
	.section	.text.GetFCntDown,"ax",%progbits
	.align	1
	.syntax unified
	.thumb
	.thumb_func
	.fpu fpv4-sp-d16
	.type	GetFCntDown, %function
GetFCntDown:
.LFB28:
	.loc 1 1762 1
	@ args = 12, pretend = 0, frame = 16
	@ frame_needed = 0, uses_anonymous_args = 0
	push	{lr}
.LCFI56:
	sub	sp, sp, #20
.LCFI57:
	str	r2, [sp, #8]
	str	r3, [sp, #4]
	mov	r3, r0
	strb	r3, [sp, #15]
	mov	r3, r1
	strb	r3, [sp, #14]
	.loc 1 1763 7
	ldr	r3, [sp, #8]
	cmp	r3, #0
	beq	.L221
	.loc 1 1763 28 discriminator 1
	ldr	r3, [sp, #28]
	cmp	r3, #0
	beq	.L221
	.loc 1 1763 50 discriminator 2
	ldr	r3, [sp, #32]
	cmp	r3, #0
	bne	.L222
.L221:
	.loc 1 1766 16
	movs	r3, #10
	b	.L223
.L222:
	.loc 1 1770 5
	ldrb	r3, [sp, #15]	@ zero_extendqisi2
	cmp	r3, #4
	bhi	.L224
	adr	r2, .L226
	ldr	pc, [r2, r3, lsl #2]
	.p2align 2
.L226:
	.word	.L230+1
	.word	.L229+1
	.word	.L228+1
	.word	.L227+1
	.word	.L225+1
	.p2align 1
.L225:
	.loc 1 1773 36
	ldrb	r3, [sp, #6]	@ zero_extendqisi2
	.loc 1 1773 15
	cmp	r3, #1
	bne	.L231
	.loc 1 1775 19
	ldrb	r3, [sp, #14]	@ zero_extendqisi2
	cmp	r3, #0
	beq	.L232
	.loc 1 1775 47 discriminator 1
	ldrb	r3, [sp, #14]	@ zero_extendqisi2
	cmp	r3, #3
	bne	.L233
.L232:
	.loc 1 1777 29
	ldr	r3, [sp, #28]
	movs	r2, #2
	strb	r2, [r3]
	.loc 1 1788 13
	b	.L236
.L233:
	.loc 1 1781 29
	ldr	r3, [sp, #28]
	movs	r2, #1
	strb	r2, [r3]
	.loc 1 1788 13
	b	.L236
.L231:
	.loc 1 1786 25
	ldr	r3, [sp, #28]
	movs	r2, #3
	strb	r2, [r3]
	.loc 1 1788 13
	b	.L236
.L230:
	.loc 1 1790 21
	ldr	r3, [sp, #28]
	movs	r2, #4
	strb	r2, [r3]
	.loc 1 1791 13
	b	.L236
.L229:
	.loc 1 1793 21
	ldr	r3, [sp, #28]
	movs	r2, #5
	strb	r2, [r3]
	.loc 1 1794 13
	b	.L236
.L228:
	.loc 1 1796 21
	ldr	r3, [sp, #28]
	movs	r2, #6
	strb	r2, [r3]
	.loc 1 1797 13
	b	.L236
.L227:
	.loc 1 1799 21
	ldr	r3, [sp, #28]
	movs	r2, #7
	strb	r2, [r3]
	.loc 1 1800 13
	b	.L236
.L224:
	.loc 1 1802 20
	movs	r3, #5
	b	.L223
.L236:
	.loc 1 1805 12
	ldr	r3, [sp, #28]
	ldrb	r0, [r3]	@ zero_extendqisi2
	.loc 1 1805 71
	ldr	r3, [sp, #8]
	ldrh	r3, [r3, #14]
	.loc 1 1805 12
	mov	r2, r3
	ldrh	r1, [sp, #24]
	ldr	r3, [sp, #32]
	bl	LoRaMacCryptoGetFCntDown
	mov	r3, r0
.L223:
	.loc 1 1806 1
	mov	r0, r3
	add	sp, sp, #20
.LCFI58:
	@ sp needed
	ldr	pc, [sp], #4
.LFE28:
	.size	GetFCntDown, .-GetFCntDown
	.section	.text.SwitchClass,"ax",%progbits
	.align	1
	.syntax unified
	.thumb
	.thumb_func
	.fpu fpv4-sp-d16
	.type	SwitchClass, %function
SwitchClass:
.LFB29:
	.loc 1 1809 1
	@ args = 0, pretend = 0, frame = 16
	@ frame_needed = 0, uses_anonymous_args = 0
	push	{r4, r5, lr}
.LCFI59:
	sub	sp, sp, #20
.LCFI60:
	mov	r3, r0
	strb	r3, [sp, #7]
	.loc 1 1810 21
	movs	r3, #3
	strb	r3, [sp, #15]
	.loc 1 1812 19
	ldr	r3, .L255
	ldr	r3, [r3, #1156]
	.loc 1 1812 26
	ldrb	r3, [r3, #240]	@ zero_extendqisi2
	.loc 1 1812 5
	cmp	r3, #2
	beq	.L238
	cmp	r3, #2
	bgt	.L239
	cmp	r3, #0
	beq	.L240
	cmp	r3, #1
	beq	.L241
	b	.L239
.L240:
	.loc 1 1816 15
	ldrb	r3, [sp, #7]	@ zero_extendqisi2
	cmp	r3, #0
	bne	.L242
	.loc 1 1819 61
	ldr	r3, .L255
	ldr	r2, [r3, #1156]
	.loc 1 1819 23
	ldr	r3, .L255
	ldr	r3, [r3, #1156]
	.loc 1 1819 53
	add	r3, r3, #292
	add	r2, r2, #284
	ldm	r2, {r0, r1}
	stm	r3, {r0, r1}
.L242:
	.loc 1 1821 15
	ldrb	r3, [sp, #7]	@ zero_extendqisi2
	cmp	r3, #1
	bne	.L243
	.loc 1 1823 26
	ldrb	r3, [sp, #7]	@ zero_extendqisi2
	mov	r0, r3
	bl	LoRaMacClassBSwitchClass
	mov	r3, r0
	strb	r3, [sp, #15]
	.loc 1 1824 19
	ldrb	r3, [sp, #15]	@ zero_extendqisi2
	cmp	r3, #0
	bne	.L243
	.loc 1 1826 27
	ldr	r3, .L255
	ldr	r3, [r3, #1156]
	.loc 1 1826 48
	ldrb	r2, [sp, #7]
	strb	r2, [r3, #240]
.L243:
	.loc 1 1830 15
	ldrb	r3, [sp, #7]	@ zero_extendqisi2
	cmp	r3, #2
	bne	.L252
	.loc 1 1832 23
	ldr	r3, .L255
	ldr	r3, [r3, #1156]
	.loc 1 1832 44
	ldrb	r2, [sp, #7]
	strb	r2, [r3, #240]
	.loc 1 1834 40
	ldr	r2, .L255
	ldr	r3, .L255
	add	r4, r2, #992
	add	r5, r3, #972
	ldmia	r5!, {r0, r1, r2, r3}
	stmia	r4!, {r0, r1, r2, r3}
	ldr	r3, [r5]
	str	r3, [r4]
	.loc 1 1835 47
	ldr	r3, .L255
	movs	r2, #2
	strb	r2, [r3, #1011]
.LBB8:
	.loc 1 1837 29
	movs	r3, #0
	strb	r3, [sp, #14]
	.loc 1 1837 17
	b	.L245
.L248:
	.loc 1 1839 31
	ldr	r3, .L255
	ldr	r1, [r3, #1156]
	.loc 1 1839 77
	ldrsb	r2, [sp, #14]
	mov	r3, r2
	lsls	r3, r3, #2
	add	r3, r3, r2
	lsls	r3, r3, #3
	add	r3, r3, r1
	adds	r3, r3, #81
	ldrb	r3, [r3]	@ zero_extendqisi2
	.loc 1 1839 23
	cmp	r3, #0
	beq	.L246
	.loc 1 1842 79
	ldr	r3, .L255
	ldr	r0, [r3, #1156]
	.loc 1 1842 141
	ldrsb	r2, [sp, #14]
	.loc 1 1842 31
	ldr	r3, .L255
	ldr	r1, [r3, #1156]
	.loc 1 1842 141
	mov	r3, r2
	lsls	r3, r3, #2
	add	r3, r3, r2
	lsls	r3, r3, #3
	add	r3, r3, r0
	adds	r3, r3, #100
	ldr	r3, [r3]
	.loc 1 1842 71
	str	r3, [r1, #292]
	.loc 1 1843 78
	ldr	r3, .L255
	ldr	r1, [r3, #1156]
	.loc 1 1843 140
	ldrsb	r2, [sp, #14]
	mov	r3, r2
	lsls	r3, r3, #2
	add	r3, r3, r2
	lsls	r3, r3, #3
	add	r3, r3, r1
	adds	r3, r3, #104
	ldrsb	r2, [r3]
	.loc 1 1843 31
	ldr	r3, .L255
	ldr	r3, [r3, #1156]
	.loc 1 1843 140
	uxtb	r2, r2
	.loc 1 1843 70
	strb	r2, [r3, #296]
	.loc 1 1845 64
	ldr	r3, .L255
	ldrb	r2, [r3, #1045]	@ zero_extendqisi2
	.loc 1 1845 56
	ldr	r3, .L255
	strb	r2, [r3, #992]
	.loc 1 1846 66
	ldr	r3, .L255
	ldr	r3, [r3, #1156]
	.loc 1 1846 95
	ldr	r3, [r3, #292]
	.loc 1 1846 58
	ldr	r2, .L255
	str	r3, [r2, #996]
	.loc 1 1847 74
	ldr	r3, .L255
	ldr	r3, [r3, #1156]
	.loc 1 1847 92
	ldrb	r2, [r3, #301]	@ zero_extendqisi2
	.loc 1 1847 66
	ldr	r3, .L255
	strb	r2, [r3, #1008]
	.loc 1 1848 72
	ldr	r3, .L255
	ldr	r3, [r3, #1156]
	.loc 1 1848 79
	ldrb	r2, [r3, #319]	@ zero_extendqisi2
	.loc 1 1848 64
	ldr	r3, .L255
	strb	r2, [r3, #1009]
	.loc 1 1849 55
	ldr	r3, .L255
	movs	r2, #3
	strb	r2, [r3, #1011]
	.loc 1 1850 61
	ldr	r3, .L255
	movs	r2, #1
	strb	r2, [r3, #1010]
	.loc 1 1851 25
	b	.L247
.L246:
	.loc 1 1837 61 discriminator 2
	ldrsb	r3, [sp, #14]
	uxtb	r3, r3
	adds	r3, r3, #1
	uxtb	r3, r3
	strb	r3, [sp, #14]
.L245:
	.loc 1 1837 17 discriminator 1
	ldrsb	r3, [sp, #14]
	cmp	r3, #3
	ble	.L248
.L247:
.LBE8:
	.loc 1 1856 41
	ldr	r3, .L255
	movs	r2, #0
	strb	r2, [r3, #1044]
	.loc 1 1858 22
	ldr	r3, .L255+4
	ldr	r3, [r3, #44]
	.loc 1 1858 17
	blx	r3
.LVL14:
	.loc 1 1860 17
	bl	OpenContinuousRxCWindow
	.loc 1 1862 24
	movs	r3, #0
	strb	r3, [sp, #15]
	.loc 1 1864 13
	b	.L252
.L241:
	.loc 1 1868 22
	ldrb	r3, [sp, #7]	@ zero_extendqisi2
	mov	r0, r3
	bl	LoRaMacClassBSwitchClass
	mov	r3, r0
	strb	r3, [sp, #15]
	.loc 1 1869 15
	ldrb	r3, [sp, #15]	@ zero_extendqisi2
	cmp	r3, #0
	bne	.L253
	.loc 1 1871 23
	ldr	r3, .L255
	ldr	r3, [r3, #1156]
	.loc 1 1871 44
	ldrb	r2, [sp, #7]
	strb	r2, [r3, #240]
	.loc 1 1873 13
	b	.L253
.L238:
	.loc 1 1877 15
	ldrb	r3, [sp, #7]	@ zero_extendqisi2
	cmp	r3, #0
	bne	.L254
	.loc 1 1879 23
	ldr	r3, .L255
	ldr	r3, [r3, #1156]
	.loc 1 1879 44
	ldrb	r2, [sp, #7]
	strb	r2, [r3, #240]
	.loc 1 1882 22
	ldr	r3, .L255+4
	ldr	r3, [r3, #44]
	.loc 1 1882 17
	blx	r3
.LVL15:
	.loc 1 1884 24
	movs	r3, #0
	strb	r3, [sp, #15]
	.loc 1 1886 13
	b	.L254
.L252:
	.loc 1 1864 13
	nop
	b	.L239
.L253:
	.loc 1 1873 13
	nop
	b	.L239
.L254:
	.loc 1 1886 13
	nop
.L239:
	.loc 1 1890 12
	ldrb	r3, [sp, #15]	@ zero_extendqisi2
	.loc 1 1891 1
	mov	r0, r3
	add	sp, sp, #20
.LCFI61:
	@ sp needed
	pop	{r4, r5, pc}
.L256:
	.align	2
.L255:
	.word	MacCtx
	.word	Radio
.LFE29:
	.size	SwitchClass, .-SwitchClass
	.section	.text.GetMaxAppPayloadWithoutFOptsLength,"ax",%progbits
	.align	1
	.syntax unified
	.thumb
	.thumb_func
	.fpu fpv4-sp-d16
	.type	GetMaxAppPayloadWithoutFOptsLength, %function
GetMaxAppPayloadWithoutFOptsLength:
.LFB30:
	.loc 1 1894 1
	@ args = 0, pretend = 0, frame = 16
	@ frame_needed = 0, uses_anonymous_args = 0
	push	{lr}
.LCFI62:
	sub	sp, sp, #20
.LCFI63:
	mov	r3, r0
	strb	r3, [sp, #7]
	.loc 1 1899 36
	ldr	r3, .L260
	ldr	r3, [r3, #1156]
	.loc 1 1899 54
	ldrb	r3, [r3, #300]	@ zero_extendqisi2
	.loc 1 1899 28
	strb	r3, [sp, #14]
	.loc 1 1900 21
	ldrb	r3, [sp, #7]
	strb	r3, [sp, #13]
	.loc 1 1901 22
	movs	r3, #13
	strb	r3, [sp, #12]
	.loc 1 1904 15
	ldr	r3, .L260
	ldr	r3, [r3, #1156]
	.loc 1 1904 22
	ldrb	r3, [r3, #319]	@ zero_extendqisi2
	.loc 1 1904 7
	cmp	r3, #0
	beq	.L258
	.loc 1 1906 26
	movs	r3, #14
	strb	r3, [sp, #12]
.L258:
	.loc 1 1908 41
	ldr	r3, .L260
	ldr	r3, [r3, #1156]
	.loc 1 1908 16
	ldrb	r3, [r3]	@ zero_extendqisi2
	add	r2, sp, #12
	mov	r1, r2
	mov	r0, r3
	bl	RegionGetPhyParam
	mov	r3, r0
	str	r3, [sp, #8]
	.loc 1 1910 20
	ldr	r3, [sp, #8]
	uxtb	r3, r3
	.loc 1 1911 1
	mov	r0, r3
	add	sp, sp, #20
.LCFI64:
	@ sp needed
	ldr	pc, [sp], #4
.L261:
	.align	2
.L260:
	.word	MacCtx
.LFE30:
	.size	GetMaxAppPayloadWithoutFOptsLength, .-GetMaxAppPayloadWithoutFOptsLength
	.section	.text.ValidatePayloadLength,"ax",%progbits
	.align	1
	.syntax unified
	.thumb
	.thumb_func
	.fpu fpv4-sp-d16
	.type	ValidatePayloadLength, %function
ValidatePayloadLength:
.LFB31:
	.loc 1 1914 1
	@ args = 0, pretend = 0, frame = 16
	@ frame_needed = 0, uses_anonymous_args = 0
	push	{lr}
.LCFI65:
	sub	sp, sp, #20
.LCFI66:
	mov	r3, r0
	strb	r3, [sp, #7]
	mov	r3, r1
	strb	r3, [sp, #6]
	mov	r3, r2
	strb	r3, [sp, #5]
	.loc 1 1915 14
	movs	r3, #0
	strh	r3, [sp, #14]	@ movhi
	.loc 1 1916 14
	movs	r3, #0
	strh	r3, [sp, #12]	@ movhi
	.loc 1 1918 12
	ldrsb	r3, [sp, #6]
	mov	r0, r3
	bl	GetMaxAppPayloadWithoutFOptsLength
	mov	r3, r0
	.loc 1 1918 10
	strh	r3, [sp, #14]	@ movhi
	.loc 1 1921 26
	ldrb	r3, [sp, #7]	@ zero_extendqisi2
	uxth	r2, r3
	ldrb	r3, [sp, #5]	@ zero_extendqisi2
	uxth	r3, r3
	.loc 1 1921 17
	add	r3, r3, r2
	strh	r3, [sp, #12]	@ movhi
	.loc 1 1924 7
	ldrh	r2, [sp, #12]
	ldrh	r3, [sp, #14]
	cmp	r2, r3
	bhi	.L263
	.loc 1 1924 33 discriminator 1
	ldrh	r3, [sp, #12]
	cmp	r3, #255
	bhi	.L263
	.loc 1 1926 16
	movs	r3, #1
	b	.L264
.L263:
	.loc 1 1928 12
	movs	r3, #0
.L264:
	.loc 1 1929 1
	mov	r0, r3
	add	sp, sp, #20
.LCFI67:
	@ sp needed
	ldr	pc, [sp], #4
.LFE31:
	.size	ValidatePayloadLength, .-ValidatePayloadLength
	.section	.text.SetMlmeScheduleUplinkIndication,"ax",%progbits
	.align	1
	.syntax unified
	.thumb
	.thumb_func
	.fpu fpv4-sp-d16
	.type	SetMlmeScheduleUplinkIndication, %function
SetMlmeScheduleUplinkIndication:
.LFB32:
	.loc 1 1932 1
	@ args = 0, pretend = 0, frame = 0
	@ frame_needed = 0, uses_anonymous_args = 0
	@ link register save eliminated.
	.loc 1 1933 45
	ldr	r2, .L266
	ldrb	r3, [r2, #1153]
	orr	r3, r3, #16
	strb	r3, [r2, #1153]
	.loc 1 1934 1
	nop
	bx	lr
.L267:
	.align	2
.L266:
	.word	MacCtx
.LFE32:
	.size	SetMlmeScheduleUplinkIndication, .-SetMlmeScheduleUplinkIndication
	.section	.text.ProcessMacCommands,"ax",%progbits
	.align	1
	.syntax unified
	.thumb
	.thumb_func
	.fpu fpv4-sp-d16
	.type	ProcessMacCommands, %function
ProcessMacCommands:
.LFB33:
	.loc 1 1937 1
	@ args = 4, pretend = 0, frame = 136
	@ frame_needed = 0, uses_anonymous_args = 0
	push	{r4, lr}
.LCFI68:
	sub	sp, sp, #144
.LCFI69:
	str	r0, [sp, #12]
	mov	r0, r1
	mov	r1, r2
	mov	r2, r3
	mov	r3, r0
	strb	r3, [sp, #11]
	mov	r3, r1
	strb	r3, [sp, #10]
	mov	r3, r2
	strb	r3, [sp, #9]
	.loc 1 1938 13
	movs	r3, #0
	strb	r3, [sp, #115]
	.loc 1 1939 10
	movs	r3, #0
	strb	r3, [sp, #143]
	.loc 1 1940 13
	movs	r3, #0
	strh	r3, [sp, #112]	@ movhi
	.loc 1 1942 10
	b	.L269
.L302:
	.loc 1 1946 49
	ldrb	r3, [sp, #11]	@ zero_extendqisi2
	ldr	r2, [sp, #12]
	add	r3, r3, r2
	.loc 1 1946 15
	ldrb	r3, [r3]	@ zero_extendqisi2
	mov	r0, r3
	bl	LoRaMacCommandsGetCmdSize
	mov	r3, r0
	mov	r2, r3
	.loc 1 1946 62
	ldrb	r3, [sp, #11]	@ zero_extendqisi2
	add	r2, r2, r3
	.loc 1 1946 75
	ldrb	r3, [sp, #10]	@ zero_extendqisi2
	.loc 1 1946 11
	cmp	r2, r3
	bgt	.L306
	.loc 1 1952 33
	ldrb	r3, [sp, #11]	@ zero_extendqisi2
	adds	r2, r3, #1
	strb	r2, [sp, #11]
	mov	r2, r3
	.loc 1 1952 24
	ldr	r3, [sp, #12]
	add	r3, r3, r2
	ldrb	r3, [r3]	@ zero_extendqisi2
	subs	r3, r3, #2
	cmp	r3, #17
	bhi	.L307
	adr	r2, .L274
	ldr	pc, [r2, r3, lsl #2]
	.p2align 2
.L274:
	.word	.L287+1
	.word	.L286+1
	.word	.L285+1
	.word	.L284+1
	.word	.L283+1
	.word	.L282+1
	.word	.L281+1
	.word	.L280+1
	.word	.L279+1
	.word	.L307+1
	.word	.L307+1
	.word	.L278+1
	.word	.L307+1
	.word	.L307+1
	.word	.L277+1
	.word	.L276+1
	.word	.L275+1
	.word	.L273+1
	.p2align 1
.L287:
	.loc 1 1956 21
	movs	r0, #3
	bl	LoRaMacConfirmQueueIsCmdActive
	mov	r3, r0
	.loc 1 1956 19
	cmp	r3, #0
	beq	.L269
	.loc 1 1958 21
	movs	r1, #3
	movs	r0, #0
	bl	LoRaMacConfirmQueueSetStatus
	.loc 1 1959 70
	ldrb	r3, [sp, #11]	@ zero_extendqisi2
	adds	r2, r3, #1
	strb	r2, [sp, #11]
	mov	r2, r3
	.loc 1 1959 61
	ldr	r3, [sp, #12]
	add	r3, r3, r2
	ldrb	r2, [r3]	@ zero_extendqisi2
	.loc 1 1959 52
	ldr	r3, .L310
	strb	r2, [r3, #1112]
	.loc 1 1960 69
	ldrb	r3, [sp, #11]	@ zero_extendqisi2
	adds	r2, r3, #1
	strb	r2, [sp, #11]
	mov	r2, r3
	.loc 1 1960 60
	ldr	r3, [sp, #12]
	add	r3, r3, r2
	ldrb	r2, [r3]	@ zero_extendqisi2
	.loc 1 1960 51
	ldr	r3, .L310
	strb	r2, [r3, #1113]
	.loc 1 1962 17
	b	.L269
.L286:
.LBB9:
	.loc 1 1967 24
	movs	r3, #0
	strb	r3, [sp, #95]
	.loc 1 1968 24
	movs	r3, #0
	strb	r3, [sp, #94]
	.loc 1 1969 25
	movs	r3, #0
	strb	r3, [sp, #93]
	.loc 1 1970 25
	movs	r3, #0
	strb	r3, [sp, #92]
	.loc 1 1972 35
	ldrb	r3, [sp, #143]
	eor	r3, r3, #1
	uxtb	r3, r3
	.loc 1 1972 19
	cmp	r3, #0
	beq	.L308
	.loc 1 1974 35
	movs	r3, #1
	strb	r3, [sp, #143]
	.loc 1 1977 50
	ldrb	r3, [sp, #11]	@ zero_extendqisi2
	subs	r3, r3, #1
	.loc 1 1977 42
	ldr	r2, [sp, #12]
	add	r3, r3, r2
	.loc 1 1977 40
	str	r3, [sp, #100]
	.loc 1 1978 59
	ldrb	r2, [sp, #10]
	ldrb	r3, [sp, #11]
	subs	r3, r2, r3
	uxtb	r3, r3
	adds	r3, r3, #1
	uxtb	r3, r3
	.loc 1 1978 44
	strb	r3, [sp, #104]
	.loc 1 1979 51
	ldr	r3, .L310
	ldr	r3, [r3, #1156]
	.loc 1 1979 58
	ldrb	r3, [r3, #242]	@ zero_extendqisi2
	.loc 1 1979 43
	strb	r3, [sp, #106]
	.loc 1 1980 56
	ldr	r3, .L310
	ldr	r3, [r3, #1156]
	.loc 1 1980 74
	ldrb	r3, [r3, #300]	@ zero_extendqisi2
	.loc 1 1980 48
	strb	r3, [sp, #105]
	.loc 1 1981 56
	ldr	r3, .L310
	ldr	r3, [r3, #1156]
	.loc 1 1981 74
	ldrsb	r3, [r3, #249]
	.loc 1 1981 48
	strb	r3, [sp, #107]
	.loc 1 1982 55
	ldr	r3, .L310
	ldr	r3, [r3, #1156]
	.loc 1 1982 73
	ldrsb	r3, [r3, #248]
	.loc 1 1982 47
	strb	r3, [sp, #108]
	.loc 1 1983 53
	ldr	r3, .L310
	ldr	r3, [r3, #1156]
	.loc 1 1983 71
	ldrb	r3, [r3, #280]	@ zero_extendqisi2
	.loc 1 1983 45
	strb	r3, [sp, #109]
	.loc 1 1984 48
	ldr	r3, .L310
	ldr	r3, [r3, #1156]
	.loc 1 1984 40
	ldr	r3, [r3, #468]
	str	r3, [sp, #96]
	.loc 1 1987 54
	ldr	r3, .L310
	ldr	r3, [r3, #1156]
	.loc 1 1987 30
	ldrb	r0, [r3]	@ zero_extendqisi2
	add	r4, sp, #94
	add	r2, sp, #95
	add	r1, sp, #96
	add	r3, sp, #92
	str	r3, [sp, #4]
	add	r3, sp, #93
	str	r3, [sp]
	mov	r3, r4
	bl	RegionLinkAdrReq
	mov	r3, r0
	.loc 1 1987 28
	strb	r3, [sp, #115]
	.loc 1 1990 34
	ldrb	r3, [sp, #115]	@ zero_extendqisi2
	and	r3, r3, #7
	.loc 1 1990 23
	cmp	r3, #7
	bne	.L290
	.loc 1 1992 31
	ldr	r3, .L310
	ldr	r3, [r3, #1156]
	.loc 1 1992 67
	ldrsb	r2, [sp, #95]
	strb	r2, [r3, #249]
	.loc 1 1993 31
	ldr	r3, .L310
	ldr	r3, [r3, #1156]
	.loc 1 1993 66
	ldrsb	r2, [sp, #94]
	strb	r2, [r3, #248]
	.loc 1 1994 31
	ldr	r3, .L310
	ldr	r3, [r3, #1156]
	.loc 1 1994 66
	ldrb	r2, [sp, #93]	@ zero_extendqisi2
	strb	r2, [r3, #280]
.L290:
.LBB10:
	.loc 1 1998 34
	movs	r3, #0
	strb	r3, [sp, #142]
	.loc 1 1998 21
	b	.L291
.L292:
	.loc 1 2000 25 discriminator 3
	add	r3, sp, #115
	movs	r2, #1
	mov	r1, r3
	movs	r0, #3
	bl	LoRaMacCommandsAddCmd
	.loc 1 1998 76 discriminator 3
	ldrb	r3, [sp, #142]	@ zero_extendqisi2
	adds	r3, r3, #1
	strb	r3, [sp, #142]
.L291:
	.loc 1 1998 43 discriminator 1
	ldrb	r3, [sp, #92]	@ zero_extendqisi2
	ldr	r2, .L310+4
	umull	r2, r3, r2, r3
	lsrs	r3, r3, #2
	uxtb	r3, r3
	.loc 1 1998 21 discriminator 1
	ldrb	r2, [sp, #142]	@ zero_extendqisi2
	cmp	r2, r3
	bcc	.L292
.LBE10:
	.loc 1 2003 30
	ldrb	r2, [sp, #92]	@ zero_extendqisi2
	ldrb	r3, [sp, #11]
	add	r3, r3, r2
	uxtb	r3, r3
	subs	r3, r3, #1
	strb	r3, [sp, #11]
.L308:
	.loc 1 2005 17
	nop
	b	.L269
.L285:
.LBE9:
	.loc 1 2009 60
	ldrb	r3, [sp, #11]	@ zero_extendqisi2
	adds	r2, r3, #1
	strb	r2, [sp, #11]
	mov	r2, r3
	.loc 1 2009 51
	ldr	r3, [sp, #12]
	add	r3, r3, r2
	ldrb	r2, [r3]	@ zero_extendqisi2
	.loc 1 2009 23
	ldr	r3, .L310
	ldr	r3, [r3, #1156]
	.loc 1 2009 64
	and	r2, r2, #15
	uxtb	r2, r2
	.loc 1 2009 42
	strb	r2, [r3, #316]
	.loc 1 2010 62
	ldr	r3, .L310
	ldr	r3, [r3, #1156]
	.loc 1 2010 69
	ldrb	r3, [r3, #316]	@ zero_extendqisi2
	mov	r2, r3
	.loc 1 2010 53
	movs	r3, #1
	lsl	r2, r3, r2
	.loc 1 2010 23
	ldr	r3, .L310
	ldr	r3, [r3, #1156]
	.loc 1 2010 49
	uxth	r2, r2
	strh	r2, [r3, #450]	@ movhi
	.loc 1 2011 17
	add	r3, sp, #112
	movs	r2, #0
	mov	r1, r3
	movs	r0, #4
	bl	LoRaMacCommandsAddCmd
	.loc 1 2012 17
	b	.L269
.L284:
.LBB11:
	.loc 1 2017 24
	movs	r3, #7
	strb	r3, [sp, #115]
	.loc 1 2019 53
	ldrb	r3, [sp, #11]	@ zero_extendqisi2
	ldr	r2, [sp, #12]
	add	r3, r3, r2
	ldrb	r3, [r3]	@ zero_extendqisi2
	.loc 1 2019 71
	lsrs	r3, r3, #4
	uxtb	r3, r3
	sxtb	r3, r3
	and	r3, r3, #7
	sxtb	r3, r3
	.loc 1 2019 42
	strb	r3, [sp, #85]
	.loc 1 2020 51
	ldrb	r3, [sp, #11]	@ zero_extendqisi2
	ldr	r2, [sp, #12]
	add	r3, r3, r2
	ldrb	r3, [r3]	@ zero_extendqisi2
	sxtb	r3, r3
	.loc 1 2020 62
	and	r3, r3, #15
	sxtb	r3, r3
	.loc 1 2020 42
	strb	r3, [sp, #84]
	.loc 1 2021 25
	ldrb	r3, [sp, #11]	@ zero_extendqisi2
	adds	r3, r3, #1
	strb	r3, [sp, #11]
	.loc 1 2023 74
	ldrb	r3, [sp, #11]	@ zero_extendqisi2
	adds	r2, r3, #1
	strb	r2, [sp, #11]
	mov	r2, r3
	.loc 1 2023 65
	ldr	r3, [sp, #12]
	add	r3, r3, r2
	ldrb	r3, [r3]	@ zero_extendqisi2
	.loc 1 2023 43
	str	r3, [sp, #88]
	.loc 1 2024 75
	ldrb	r3, [sp, #11]	@ zero_extendqisi2
	adds	r2, r3, #1
	strb	r2, [sp, #11]
	mov	r2, r3
	.loc 1 2024 66
	ldr	r3, [sp, #12]
	add	r3, r3, r2
	ldrb	r3, [r3]	@ zero_extendqisi2
	.loc 1 2024 79
	lsls	r2, r3, #8
	.loc 1 2024 43
	ldr	r3, [sp, #88]
	orrs	r3, r3, r2
	str	r3, [sp, #88]
	.loc 1 2025 75
	ldrb	r3, [sp, #11]	@ zero_extendqisi2
	adds	r2, r3, #1
	strb	r2, [sp, #11]
	mov	r2, r3
	.loc 1 2025 66
	ldr	r3, [sp, #12]
	add	r3, r3, r2
	ldrb	r3, [r3]	@ zero_extendqisi2
	.loc 1 2025 79
	lsls	r2, r3, #16
	.loc 1 2025 43
	ldr	r3, [sp, #88]
	orrs	r3, r3, r2
	str	r3, [sp, #88]
	.loc 1 2026 43
	ldr	r3, [sp, #88]
	movs	r2, #100
	mul	r3, r2, r3
	str	r3, [sp, #88]
	.loc 1 2029 55
	ldr	r3, .L310
	ldr	r3, [r3, #1156]
	.loc 1 2029 26
	ldrb	r3, [r3]	@ zero_extendqisi2
	add	r2, sp, #84
	mov	r1, r2
	mov	r0, r3
	bl	RegionRxParamSetupReq
	mov	r3, r0
	.loc 1 2029 24
	strb	r3, [sp, #115]
	.loc 1 2031 30
	ldrb	r3, [sp, #115]	@ zero_extendqisi2
	and	r3, r3, #7
	.loc 1 2031 19
	cmp	r3, #7
	bne	.L293
	.loc 1 2033 83
	ldrsb	r2, [sp, #84]
	.loc 1 2033 27
	ldr	r3, .L310
	ldr	r3, [r3, #1156]
	.loc 1 2033 83
	uxtb	r2, r2
	.loc 1 2033 66
	strb	r2, [r3, #288]
	.loc 1 2034 83
	ldrsb	r2, [sp, #84]
	.loc 1 2034 27
	ldr	r3, .L310
	ldr	r3, [r3, #1156]
	.loc 1 2034 83
	uxtb	r2, r2
	.loc 1 2034 66
	strb	r2, [r3, #296]
	.loc 1 2035 27
	ldr	r3, .L310
	ldr	r3, [r3, #1156]
	.loc 1 2035 84
	ldr	r2, [sp, #88]
	.loc 1 2035 67
	str	r2, [r3, #284]
	.loc 1 2036 27
	ldr	r3, .L310
	ldr	r3, [r3, #1156]
	.loc 1 2036 84
	ldr	r2, [sp, #88]
	.loc 1 2036 67
	str	r2, [r3, #292]
	.loc 1 2037 75
	ldrsb	r2, [sp, #85]
	.loc 1 2037 27
	ldr	r3, .L310
	ldr	r3, [r3, #1156]
	.loc 1 2037 75
	uxtb	r2, r2
	.loc 1 2037 58
	strb	r2, [r3, #281]
.L293:
	.loc 1 2039 34
	ldrb	r3, [sp, #115]	@ zero_extendqisi2
	strb	r3, [sp, #112]
	.loc 1 2040 17
	add	r3, sp, #112
	movs	r2, #1
	mov	r1, r3
	movs	r0, #5
	bl	LoRaMacCommandsAddCmd
	.loc 1 2042 17
	bl	SetMlmeScheduleUplinkIndication
	.loc 1 2043 17
	nop
	b	.L269
.L283:
.LBE11:
.LBB12:
	.loc 1 2047 25
	movs	r3, #255
	strb	r3, [sp, #141]
	.loc 1 2048 29
	ldr	r3, .L310
	ldr	r3, [r3, #840]
	.loc 1 2048 19
	cmp	r3, #0
	beq	.L294
	.loc 1 2048 64 discriminator 1
	ldr	r3, .L310
	ldr	r3, [r3, #840]
	.loc 1 2048 77 discriminator 1
	ldr	r3, [r3]
	.loc 1 2048 53 discriminator 1
	cmp	r3, #0
	beq	.L294
	.loc 1 2050 42
	ldr	r3, .L310
	ldr	r3, [r3, #840]
	.loc 1 2050 55
	ldr	r3, [r3]
	.loc 1 2050 36
	blx	r3
.LVL16:
	mov	r3, r0
	strb	r3, [sp, #141]
.L294:
	.loc 1 2052 34
	ldrb	r3, [sp, #141]
	strb	r3, [sp, #112]
	.loc 1 2053 53
	ldrb	r3, [sp, #9]	@ zero_extendqisi2
	.loc 1 2053 36
	and	r3, r3, #63
	uxtb	r3, r3
	.loc 1 2053 34
	strb	r3, [sp, #113]
	.loc 1 2054 17
	add	r3, sp, #112
	movs	r2, #2
	mov	r1, r3
	movs	r0, #6
	bl	LoRaMacCommandsAddCmd
	.loc 1 2055 17
	b	.L269
.L311:
	.align	2
.L310:
	.word	MacCtx
	.word	-858993459
.L282:
.LBE12:
.LBB13:
	.loc 1 2061 24
	movs	r3, #3
	strb	r3, [sp, #115]
	.loc 1 2063 59
	ldrb	r3, [sp, #11]	@ zero_extendqisi2
	adds	r2, r3, #1
	strb	r2, [sp, #11]
	mov	r2, r3
	.loc 1 2063 50
	ldr	r3, [sp, #12]
	add	r3, r3, r2
	ldrb	r3, [r3]	@ zero_extendqisi2
	sxtb	r3, r3
	.loc 1 2063 41
	strb	r3, [sp, #80]
	.loc 1 2064 42
	add	r3, sp, #64
	str	r3, [sp, #76]
	.loc 1 2066 66
	ldrb	r3, [sp, #11]	@ zero_extendqisi2
	adds	r2, r3, #1
	strb	r2, [sp, #11]
	mov	r2, r3
	.loc 1 2066 57
	ldr	r3, [sp, #12]
	add	r3, r3, r2
	ldrb	r3, [r3]	@ zero_extendqisi2
	.loc 1 2066 35
	str	r3, [sp, #64]
	.loc 1 2067 67
	ldrb	r3, [sp, #11]	@ zero_extendqisi2
	adds	r2, r3, #1
	strb	r2, [sp, #11]
	mov	r2, r3
	.loc 1 2067 58
	ldr	r3, [sp, #12]
	add	r3, r3, r2
	ldrb	r3, [r3]	@ zero_extendqisi2
	.loc 1 2067 71
	lsls	r2, r3, #8
	.loc 1 2067 35
	ldr	r3, [sp, #64]
	orrs	r3, r3, r2
	str	r3, [sp, #64]
	.loc 1 2068 67
	ldrb	r3, [sp, #11]	@ zero_extendqisi2
	adds	r2, r3, #1
	strb	r2, [sp, #11]
	mov	r2, r3
	.loc 1 2068 58
	ldr	r3, [sp, #12]
	add	r3, r3, r2
	ldrb	r3, [r3]	@ zero_extendqisi2
	.loc 1 2068 71
	lsls	r2, r3, #16
	.loc 1 2068 35
	ldr	r3, [sp, #64]
	orrs	r3, r3, r2
	str	r3, [sp, #64]
	.loc 1 2069 35
	ldr	r3, [sp, #64]
	movs	r2, #100
	mul	r3, r2, r3
	str	r3, [sp, #64]
	.loc 1 2070 38
	movs	r3, #0
	str	r3, [sp, #68]
	.loc 1 2071 57
	ldrb	r3, [sp, #11]	@ zero_extendqisi2
	adds	r2, r3, #1
	strb	r2, [sp, #11]
	mov	r2, r3
	.loc 1 2071 48
	ldr	r3, [sp, #12]
	add	r3, r3, r2
	ldrb	r3, [r3]	@ zero_extendqisi2
	sxtb	r3, r3
	.loc 1 2071 39
	strb	r3, [sp, #72]
	.loc 1 2073 53
	ldr	r3, .L312
	ldr	r3, [r3, #1156]
	.loc 1 2073 26
	ldrb	r3, [r3]	@ zero_extendqisi2
	add	r2, sp, #76
	mov	r1, r2
	mov	r0, r3
	bl	RegionNewChannelReq
	mov	r3, r0
	.loc 1 2073 24
	strb	r3, [sp, #115]
	.loc 1 2075 34
	ldrb	r3, [sp, #115]	@ zero_extendqisi2
	strb	r3, [sp, #112]
	.loc 1 2076 17
	add	r3, sp, #112
	movs	r2, #1
	mov	r1, r3
	movs	r0, #7
	bl	LoRaMacCommandsAddCmd
	.loc 1 2077 17
	nop
	b	.L269
.L281:
.LBE13:
.LBB14:
	.loc 1 2081 49
	ldrb	r3, [sp, #11]	@ zero_extendqisi2
	adds	r2, r3, #1
	strb	r2, [sp, #11]
	mov	r2, r3
	.loc 1 2081 40
	ldr	r3, [sp, #12]
	add	r3, r3, r2
	ldrb	r3, [r3]	@ zero_extendqisi2
	.loc 1 2081 25
	and	r3, r3, #15
	strb	r3, [sp, #140]
	.loc 1 2083 19
	ldrb	r3, [sp, #140]	@ zero_extendqisi2
	cmp	r3, #0
	bne	.L295
	.loc 1 2085 26
	ldrb	r3, [sp, #140]	@ zero_extendqisi2
	adds	r3, r3, #1
	strb	r3, [sp, #140]
.L295:
	.loc 1 2087 64
	ldrb	r3, [sp, #140]	@ zero_extendqisi2
	mov	r2, #1000
	mul	r2, r2, r3
	.loc 1 2087 23
	ldr	r3, .L312
	ldr	r3, [r3, #1156]
	.loc 1 2087 56
	str	r2, [r3, #264]
	.loc 1 2088 64
	ldr	r3, .L312
	ldr	r3, [r3, #1156]
	.loc 1 2088 82
	ldr	r2, [r3, #264]
	.loc 1 2088 23
	ldr	r3, .L312
	ldr	r3, [r3, #1156]
	.loc 1 2088 97
	add	r2, r2, #1000
	.loc 1 2088 56
	str	r2, [r3, #268]
	.loc 1 2089 17
	add	r3, sp, #112
	movs	r2, #0
	mov	r1, r3
	movs	r0, #8
	bl	LoRaMacCommandsAddCmd
	.loc 1 2091 17
	bl	SetMlmeScheduleUplinkIndication
	.loc 1 2092 17
	b	.L269
.L280:
.LBE14:
.LBB15:
	.loc 1 2099 57
	ldrb	r3, [sp, #11]	@ zero_extendqisi2
	adds	r2, r3, #1
	strb	r2, [sp, #11]
	mov	r2, r3
	.loc 1 2099 48
	ldr	r3, [sp, #12]
	add	r3, r3, r2
	.loc 1 2099 25
	ldrb	r3, [r3]
	strb	r3, [sp, #126]
	.loc 1 2101 49
	movs	r3, #0
	strb	r3, [sp, #60]
	.loc 1 2102 51
	movs	r3, #0
	strb	r3, [sp, #61]
	.loc 1 2104 37
	ldrb	r3, [sp, #126]	@ zero_extendqisi2
	and	r3, r3, #32
	.loc 1 2104 19
	cmp	r3, #0
	beq	.L296
	.loc 1 2106 55
	movs	r3, #1
	strb	r3, [sp, #61]
.L296:
	.loc 1 2108 37
	ldrb	r3, [sp, #126]	@ zero_extendqisi2
	and	r3, r3, #16
	.loc 1 2108 19
	cmp	r3, #0
	beq	.L297
	.loc 1 2110 53
	movs	r3, #1
	strb	r3, [sp, #60]
.L297:
	.loc 1 2112 57
	ldrb	r3, [sp, #126]
	and	r3, r3, #15
	uxtb	r3, r3
	.loc 1 2112 41
	strb	r3, [sp, #62]
	.loc 1 2115 50
	ldr	r3, .L312
	ldr	r3, [r3, #1156]
	.loc 1 2115 21
	ldrb	r3, [r3]	@ zero_extendqisi2
	add	r2, sp, #60
	mov	r1, r2
	mov	r0, r3
	bl	RegionTxParamSetupReq
	mov	r3, r0
	.loc 1 2115 19
	cmp	r3, #-1
	beq	.L309
	.loc 1 2118 27
	ldr	r3, .L312
	ldr	r3, [r3, #1156]
	.loc 1 2118 79
	ldrb	r2, [sp, #60]	@ zero_extendqisi2
	.loc 1 2118 62
	strb	r2, [r3, #300]
	.loc 1 2119 27
	ldr	r3, .L312
	ldr	r3, [r3, #1156]
	.loc 1 2119 81
	ldrb	r2, [sp, #61]	@ zero_extendqisi2
	.loc 1 2119 64
	strb	r2, [r3, #301]
	.loc 1 2120 91
	ldrb	r3, [sp, #62]	@ zero_extendqisi2
	mov	r2, r3
	.loc 1 2120 75
	ldr	r3, .L312+4
	ldrb	r2, [r3, r2]	@ zero_extendqisi2
	.loc 1 2120 27
	ldr	r3, .L312
	ldr	r3, [r3, #1156]
	.loc 1 2120 54
	vmov	s15, r2	@ int
	vcvt.f32.u32	s15, s15
	vstr.32	s15, [r3, #304]
	.loc 1 2122 38
	movs	r3, #2
	strb	r3, [sp, #56]
	.loc 1 2123 52
	ldr	r3, .L312
	ldr	r3, [r3, #1156]
	.loc 1 2123 70
	ldrb	r3, [r3, #300]	@ zero_extendqisi2
	.loc 1 2123 44
	strb	r3, [sp, #58]
	.loc 1 2124 57
	ldr	r3, .L312
	ldr	r3, [r3, #1156]
	.loc 1 2124 32
	ldrb	r3, [r3]	@ zero_extendqisi2
	add	r2, sp, #56
	mov	r1, r2
	mov	r0, r3
	bl	RegionGetPhyParam
	mov	r3, r0
	str	r3, [sp, #52]
	.loc 1 2125 65
	ldr	r3, .L312
	ldr	r3, [r3, #1156]
	ldrsb	r1, [r3, #249]
	ldr	r3, [sp, #52]
	sxtb	r2, r3
	.loc 1 2125 27
	ldr	r3, .L312
	ldr	r3, [r3, #1156]
	.loc 1 2125 65
	cmp	r2, r1
	it	lt
	movlt	r2, r1
	sxtb	r2, r2
	.loc 1 2125 63
	strb	r2, [r3, #249]
	.loc 1 2128 21
	add	r3, sp, #112
	movs	r2, #0
	mov	r1, r3
	movs	r0, #9
	bl	LoRaMacCommandsAddCmd
.L309:
	.loc 1 2130 17
	nop
	b	.L269
.L279:
.LBE15:
.LBB16:
	.loc 1 2135 24
	movs	r3, #3
	strb	r3, [sp, #115]
	.loc 1 2137 58
	ldrb	r3, [sp, #11]	@ zero_extendqisi2
	adds	r2, r3, #1
	strb	r2, [sp, #11]
	mov	r2, r3
	.loc 1 2137 49
	ldr	r3, [sp, #12]
	add	r3, r3, r2
	ldrb	r3, [r3]	@ zero_extendqisi2
	.loc 1 2137 40
	strb	r3, [sp, #44]
	.loc 1 2138 74
	ldrb	r3, [sp, #11]	@ zero_extendqisi2
	adds	r2, r3, #1
	strb	r2, [sp, #11]
	mov	r2, r3
	.loc 1 2138 65
	ldr	r3, [sp, #12]
	add	r3, r3, r2
	ldrb	r3, [r3]	@ zero_extendqisi2
	.loc 1 2138 43
	str	r3, [sp, #48]
	.loc 1 2139 75
	ldrb	r3, [sp, #11]	@ zero_extendqisi2
	adds	r2, r3, #1
	strb	r2, [sp, #11]
	mov	r2, r3
	.loc 1 2139 66
	ldr	r3, [sp, #12]
	add	r3, r3, r2
	ldrb	r3, [r3]	@ zero_extendqisi2
	.loc 1 2139 79
	lsls	r2, r3, #8
	.loc 1 2139 43
	ldr	r3, [sp, #48]
	orrs	r3, r3, r2
	str	r3, [sp, #48]
	.loc 1 2140 75
	ldrb	r3, [sp, #11]	@ zero_extendqisi2
	adds	r2, r3, #1
	strb	r2, [sp, #11]
	mov	r2, r3
	.loc 1 2140 66
	ldr	r3, [sp, #12]
	add	r3, r3, r2
	ldrb	r3, [r3]	@ zero_extendqisi2
	.loc 1 2140 79
	lsls	r2, r3, #16
	.loc 1 2140 43
	ldr	r3, [sp, #48]
	orrs	r3, r3, r2
	str	r3, [sp, #48]
	.loc 1 2141 43
	ldr	r3, [sp, #48]
	movs	r2, #100
	mul	r3, r2, r3
	str	r3, [sp, #48]
	.loc 1 2143 52
	ldr	r3, .L312
	ldr	r3, [r3, #1156]
	.loc 1 2143 26
	ldrb	r3, [r3]	@ zero_extendqisi2
	add	r2, sp, #44
	mov	r1, r2
	mov	r0, r3
	bl	RegionDlChannelReq
	mov	r3, r0
	.loc 1 2143 24
	strb	r3, [sp, #115]
	.loc 1 2144 34
	ldrb	r3, [sp, #115]	@ zero_extendqisi2
	strb	r3, [sp, #112]
	.loc 1 2145 17
	add	r3, sp, #112
	movs	r2, #1
	mov	r1, r3
	movs	r0, #10
	bl	LoRaMacCommandsAddCmd
	.loc 1 2147 17
	bl	SetMlmeScheduleUplinkIndication
	.loc 1 2148 17
	nop
	b	.L269
.L313:
	.align	2
.L312:
	.word	MacCtx
	.word	LoRaMacMaxEirpTable
.L278:
.LBE16:
.LBB17:
	.loc 1 2152 27
	add	r3, sp, #36
	movs	r2, #0
	str	r2, [r3]
	str	r2, [r3, #4]
	.loc 1 2153 27
	add	r3, sp, #28
	movs	r2, #0
	str	r2, [r3]
	str	r2, [r3, #4]
	.loc 1 2154 27
	add	r3, sp, #20
	movs	r2, #0
	str	r2, [r3]
	str	r2, [r3, #4]
	.loc 1 2156 68
	ldrb	r3, [sp, #11]	@ zero_extendqisi2
	adds	r2, r3, #1
	strb	r2, [sp, #11]
	mov	r2, r3
	.loc 1 2156 59
	ldr	r3, [sp, #12]
	add	r3, r3, r2
	ldrb	r3, [r3]	@ zero_extendqisi2
	.loc 1 2156 38
	str	r3, [sp, #36]
	.loc 1 2157 69
	ldrb	r3, [sp, #11]	@ zero_extendqisi2
	adds	r2, r3, #1
	strb	r2, [sp, #11]
	mov	r2, r3
	.loc 1 2157 60
	ldr	r3, [sp, #12]
	add	r3, r3, r2
	ldrb	r3, [r3]	@ zero_extendqisi2
	.loc 1 2157 73
	lsls	r2, r3, #8
	.loc 1 2157 38
	ldr	r3, [sp, #36]
	orrs	r3, r3, r2
	str	r3, [sp, #36]
	.loc 1 2158 69
	ldrb	r3, [sp, #11]	@ zero_extendqisi2
	adds	r2, r3, #1
	strb	r2, [sp, #11]
	mov	r2, r3
	.loc 1 2158 60
	ldr	r3, [sp, #12]
	add	r3, r3, r2
	ldrb	r3, [r3]	@ zero_extendqisi2
	.loc 1 2158 73
	lsls	r2, r3, #16
	.loc 1 2158 38
	ldr	r3, [sp, #36]
	orrs	r3, r3, r2
	str	r3, [sp, #36]
	.loc 1 2159 69
	ldrb	r3, [sp, #11]	@ zero_extendqisi2
	adds	r2, r3, #1
	strb	r2, [sp, #11]
	mov	r2, r3
	.loc 1 2159 60
	ldr	r3, [sp, #12]
	add	r3, r3, r2
	ldrb	r3, [r3]	@ zero_extendqisi2
	.loc 1 2159 73
	lsls	r2, r3, #24
	.loc 1 2159 38
	ldr	r3, [sp, #36]
	orrs	r3, r3, r2
	str	r3, [sp, #36]
	.loc 1 2160 59
	ldrb	r3, [sp, #11]	@ zero_extendqisi2
	adds	r2, r3, #1
	strb	r2, [sp, #11]
	mov	r2, r3
	.loc 1 2160 50
	ldr	r3, [sp, #12]
	add	r3, r3, r2
	ldrb	r3, [r3]	@ zero_extendqisi2
	sxth	r3, r3
	.loc 1 2160 41
	strh	r3, [sp, #40]	@ movhi
	.loc 1 2164 81
	ldrsh	r3, [sp, #40]
	.loc 1 2164 58
	mov	r2, r3
	.loc 1 2164 93
	mov	r3, #1000
	mul	r3, r3, r2
	.loc 1 2164 102
	asrs	r3, r3, #8
	.loc 1 2164 43
	sxth	r3, r3
	.loc 1 2164 41
	strh	r3, [sp, #40]	@ movhi
	.loc 1 2167 25
	add	r3, sp, #28
	add	r2, sp, #36
	ldm	r2, {r0, r1}
	stm	r3, {r0, r1}
	.loc 1 2169 33
	ldr	r2, [sp, #28]
	ldr	r3, .L314
	add	r3, r3, r2
	str	r3, [sp, #28]
	.loc 1 2172 34
	add	r3, sp, #20
	mov	r0, r3
	bl	SysTimeGet
	.loc 1 2173 27
	add	r0, sp, #116
	ldr	r3, .L314+4
	ldr	r2, [r3, #828]
	str	r2, [sp]
	ldr	r3, [r3, #824]
	add	r2, sp, #28
	ldm	r2, {r1, r2}
	bl	SysTimeSub
	add	r0, sp, #28
	ldr	r3, [sp, #120]
	str	r3, [sp]
	ldr	r3, [sp, #116]
	add	r2, sp, #20
	ldm	r2, {r1, r2}
	bl	SysTimeAdd
	.loc 1 2176 17
	add	r3, sp, #28
	ldm	r3, {r0, r1}
	bl	SysTimeSet
	.loc 1 2177 17
	bl	LoRaMacClassBDeviceTimeAns
	.loc 1 2178 61
	ldr	r3, .L314+4
	movs	r2, #1
	strb	r2, [r3, #1080]
	.loc 1 2179 17
	nop
	b	.L269
.L277:
.LBE17:
	.loc 1 2185 29
	ldr	r3, .L314+4
	ldrb	r3, [r3, #1152]	@ zero_extendqisi2
	.loc 1 2185 19
	cmp	r3, #4
	beq	.L269
	.loc 1 2185 83 discriminator 1
	ldr	r3, .L314+4
	ldrb	r3, [r3, #1152]	@ zero_extendqisi2
	.loc 1 2185 72 discriminator 1
	cmp	r3, #5
	beq	.L269
	.loc 1 2187 21
	bl	LoRaMacClassBPingSlotInfoAns
	.loc 1 2189 17
	b	.L269
.L276:
.LBB18:
	.loc 1 2193 25
	movs	r3, #3
	strb	r3, [sp, #132]
	.loc 1 2194 26
	movs	r3, #0
	str	r3, [sp, #128]
	.loc 1 2197 57
	ldrb	r3, [sp, #11]	@ zero_extendqisi2
	adds	r2, r3, #1
	strb	r2, [sp, #11]
	mov	r2, r3
	.loc 1 2197 48
	ldr	r3, [sp, #12]
	add	r3, r3, r2
	ldrb	r3, [r3]	@ zero_extendqisi2
	.loc 1 2197 27
	str	r3, [sp, #128]
	.loc 1 2198 58
	ldrb	r3, [sp, #11]	@ zero_extendqisi2
	adds	r2, r3, #1
	strb	r2, [sp, #11]
	mov	r2, r3
	.loc 1 2198 49
	ldr	r3, [sp, #12]
	add	r3, r3, r2
	ldrb	r3, [r3]	@ zero_extendqisi2
	.loc 1 2198 62
	lsls	r3, r3, #8
	.loc 1 2198 27
	ldr	r2, [sp, #128]
	orrs	r3, r3, r2
	str	r3, [sp, #128]
	.loc 1 2199 58
	ldrb	r3, [sp, #11]	@ zero_extendqisi2
	adds	r2, r3, #1
	strb	r2, [sp, #11]
	mov	r2, r3
	.loc 1 2199 49
	ldr	r3, [sp, #12]
	add	r3, r3, r2
	ldrb	r3, [r3]	@ zero_extendqisi2
	.loc 1 2199 62
	lsls	r3, r3, #16
	.loc 1 2199 27
	ldr	r2, [sp, #128]
	orrs	r3, r3, r2
	str	r3, [sp, #128]
	.loc 1 2200 27
	ldr	r3, [sp, #128]
	movs	r2, #100
	mul	r3, r2, r3
	str	r3, [sp, #128]
	.loc 1 2201 44
	ldrb	r3, [sp, #11]	@ zero_extendqisi2
	adds	r2, r3, #1
	strb	r2, [sp, #11]
	mov	r2, r3
	.loc 1 2201 35
	ldr	r3, [sp, #12]
	add	r3, r3, r2
	ldrb	r3, [r3]	@ zero_extendqisi2
	.loc 1 2201 26
	and	r3, r3, #15
	strb	r3, [sp, #127]
	.loc 1 2203 26
	ldrb	r3, [sp, #127]	@ zero_extendqisi2
	ldr	r1, [sp, #128]
	mov	r0, r3
	bl	LoRaMacClassBPingSlotChannelReq
	mov	r3, r0
	strb	r3, [sp, #132]
	.loc 1 2204 34
	ldrb	r3, [sp, #132]
	strb	r3, [sp, #112]
	.loc 1 2205 17
	add	r3, sp, #112
	movs	r2, #1
	mov	r1, r3
	movs	r0, #17
	bl	LoRaMacCommandsAddCmd
	.loc 1 2206 17
	b	.L269
.L275:
.LBE18:
.LBB19:
	.loc 1 2210 26
	movs	r3, #0
	strh	r3, [sp, #134]	@ movhi
	.loc 1 2211 25
	movs	r3, #0
	strb	r3, [sp, #133]
	.loc 1 2213 65
	ldrb	r3, [sp, #11]	@ zero_extendqisi2
	adds	r2, r3, #1
	strb	r2, [sp, #11]
	mov	r2, r3
	.loc 1 2213 56
	ldr	r3, [sp, #12]
	add	r3, r3, r2
	ldrb	r3, [r3]	@ zero_extendqisi2
	.loc 1 2213 35
	strh	r3, [sp, #134]	@ movhi
	.loc 1 2214 66
	ldrb	r3, [sp, #11]	@ zero_extendqisi2
	adds	r2, r3, #1
	strb	r2, [sp, #11]
	mov	r2, r3
	.loc 1 2214 57
	ldr	r3, [sp, #12]
	add	r3, r3, r2
	ldrb	r3, [r3]	@ zero_extendqisi2
	.loc 1 2214 70
	lsls	r3, r3, #8
	.loc 1 2214 35
	sxth	r2, r3
	ldrsh	r3, [sp, #134]
	orrs	r3, r3, r2
	sxth	r3, r3
	strh	r3, [sp, #134]	@ movhi
	.loc 1 2215 55
	ldrb	r3, [sp, #11]	@ zero_extendqisi2
	adds	r2, r3, #1
	strb	r2, [sp, #11]
	mov	r2, r3
	.loc 1 2215 46
	ldr	r3, [sp, #12]
	add	r3, r3, r2
	.loc 1 2215 37
	ldrb	r3, [r3]
	strb	r3, [sp, #133]
	.loc 1 2217 17
	ldr	r3, .L314+8
	ldr	r2, [r3]
	ldrb	r1, [sp, #133]	@ zero_extendqisi2
	ldrh	r3, [sp, #134]
	mov	r0, r3
	bl	LoRaMacClassBBeaconTimingAns
	.loc 1 2218 17
	b	.L269
.L273:
.LBE19:
.LBB20:
	.loc 1 2222 30
	movs	r3, #0
	str	r3, [sp, #136]
	.loc 1 2224 61
	ldrb	r3, [sp, #11]	@ zero_extendqisi2
	adds	r2, r3, #1
	strb	r2, [sp, #11]
	mov	r2, r3
	.loc 1 2224 52
	ldr	r3, [sp, #12]
	add	r3, r3, r2
	ldrb	r3, [r3]	@ zero_extendqisi2
	.loc 1 2224 31
	str	r3, [sp, #136]
	.loc 1 2225 62
	ldrb	r3, [sp, #11]	@ zero_extendqisi2
	adds	r2, r3, #1
	strb	r2, [sp, #11]
	mov	r2, r3
	.loc 1 2225 53
	ldr	r3, [sp, #12]
	add	r3, r3, r2
	ldrb	r3, [r3]	@ zero_extendqisi2
	.loc 1 2225 66
	lsls	r3, r3, #8
	.loc 1 2225 31
	ldr	r2, [sp, #136]
	orrs	r3, r3, r2
	str	r3, [sp, #136]
	.loc 1 2226 62
	ldrb	r3, [sp, #11]	@ zero_extendqisi2
	adds	r2, r3, #1
	strb	r2, [sp, #11]
	mov	r2, r3
	.loc 1 2226 53
	ldr	r3, [sp, #12]
	add	r3, r3, r2
	ldrb	r3, [r3]	@ zero_extendqisi2
	.loc 1 2226 66
	lsls	r3, r3, #16
	.loc 1 2226 31
	ldr	r2, [sp, #136]
	orrs	r3, r3, r2
	str	r3, [sp, #136]
	.loc 1 2227 31
	ldr	r3, [sp, #136]
	movs	r2, #100
	mul	r3, r2, r3
	str	r3, [sp, #136]
	.loc 1 2229 25
	ldr	r0, [sp, #136]
	bl	LoRaMacClassBBeaconFreqReq
	mov	r3, r0
	.loc 1 2229 23
	cmp	r3, #0
	beq	.L300
	.loc 1 2231 42
	movs	r3, #1
	strb	r3, [sp, #112]
	b	.L301
.L300:
	.loc 1 2235 42
	movs	r3, #0
	strb	r3, [sp, #112]
.L301:
	.loc 1 2237 21
	add	r3, sp, #112
	movs	r2, #1
	mov	r1, r3
	movs	r0, #19
	bl	LoRaMacCommandsAddCmd
.LBE20:
	.loc 1 2239 17
	nop
.L269:
	.loc 1 1942 10
	ldrb	r2, [sp, #11]	@ zero_extendqisi2
	ldrb	r3, [sp, #10]	@ zero_extendqisi2
	cmp	r2, r3
	bcc	.L302
	b	.L268
.L306:
	.loc 1 1948 13
	nop
	b	.L268
.L307:
	.loc 1 2242 17
	nop
.L268:
	.loc 1 2245 1
	add	sp, sp, #144
.LCFI70:
	@ sp needed
	pop	{r4, pc}
.L315:
	.align	2
.L314:
	.word	315964800
	.word	MacCtx
	.word	RxDoneParams
.LFE33:
	.size	ProcessMacCommands, .-ProcessMacCommands
	.section	.text.Send,"ax",%progbits
	.align	1
	.global	Send
	.syntax unified
	.thumb
	.thumb_func
	.fpu fpv4-sp-d16
	.type	Send, %function
Send:
.LFB34:
	.loc 1 2248 1
	@ args = 0, pretend = 0, frame = 48
	@ frame_needed = 0, uses_anonymous_args = 0
	push	{lr}
.LCFI71:
	sub	sp, sp, #60
.LCFI72:
	str	r0, [sp, #20]
	str	r2, [sp, #12]
	mov	r2, r3
	mov	r3, r1
	strb	r3, [sp, #19]
	mov	r3, r2	@ movhi
	strh	r3, [sp, #16]	@ movhi
	.loc 1 2250 21
	movs	r3, #3
	strb	r3, [sp, #55]
	.loc 1 2251 29
	ldr	r3, .L328
	ldr	r3, [r3, #1156]
	.loc 1 2251 12
	ldrb	r3, [r3, #249]
	strb	r3, [sp, #54]
	.loc 1 2252 28
	ldr	r3, .L328
	ldr	r3, [r3, #1156]
	.loc 1 2252 12
	ldrb	r3, [r3, #248]
	strb	r3, [sp, #53]
	.loc 1 2253 36
	ldr	r3, .L328
	ldr	r3, [r3, #1156]
	.loc 1 2253 43
	ldr	r3, [r3, #244]
	.loc 1 2253 14
	str	r3, [sp, #48]
	.loc 1 2257 15
	ldr	r3, .L328
	ldr	r3, [r3, #1156]
	.loc 1 2257 22
	ldrb	r3, [r3, #472]	@ zero_extendqisi2
	.loc 1 2257 7
	cmp	r3, #0
	bne	.L317
	.loc 1 2259 16
	movs	r3, #7
	b	.L327
.L317:
	.loc 1 2261 15
	ldr	r3, .L328
	ldr	r3, [r3, #1156]
	.loc 1 2261 22
	ldrb	r3, [r3, #316]	@ zero_extendqisi2
	.loc 1 2261 7
	cmp	r3, #0
	bne	.L319
	.loc 1 2263 15
	ldr	r3, .L328
	ldr	r3, [r3, #1156]
	.loc 1 2263 42
	movs	r2, #0
	str	r2, [r3, #456]
.L319:
	.loc 1 2266 17
	movs	r3, #0
	strb	r3, [sp, #52]
	.loc 1 2267 30
	ldrb	r3, [sp, #52]
	bfc	r3, #0, #4
	strb	r3, [sp, #52]
	.loc 1 2268 38
	ldr	r3, .L328
	ldr	r3, [r3, #1156]
	.loc 1 2268 45
	ldrb	r2, [r3, #242]	@ zero_extendqisi2
	.loc 1 2268 30
	ldrb	r3, [sp, #52]
	bfi	r3, r2, #7, #1
	strb	r3, [sp, #52]
	.loc 1 2271 15
	ldr	r3, .L328
	ldr	r3, [r3, #1156]
	.loc 1 2271 22
	ldrb	r3, [r3, #240]	@ zero_extendqisi2
	.loc 1 2271 7
	cmp	r3, #1
	bne	.L320
	.loc 1 2273 34
	ldrb	r3, [sp, #52]
	orr	r3, r3, #16
	strb	r3, [sp, #52]
	b	.L321
.L320:
	.loc 1 2277 34
	ldrb	r3, [sp, #52]
	bfc	r3, #4, #1
	strb	r3, [sp, #52]
.L321:
	.loc 1 2281 15
	ldr	r3, .L328
	ldr	r3, [r3, #1156]
	.loc 1 2281 22
	ldrb	r3, [r3, #448]	@ zero_extendqisi2
	.loc 1 2281 7
	cmp	r3, #0
	beq	.L322
	.loc 1 2283 24
	ldrb	r3, [sp, #52]
	orr	r3, r3, #32
	strb	r3, [sp, #52]
.L322:
	.loc 1 2287 29
	ldr	r3, .L328
	ldr	r3, [r3, #1156]
	.loc 1 2287 21
	ldr	r3, [r3, #468]
	str	r3, [sp, #28]
	.loc 1 2288 28
	movs	r3, #1
	strb	r3, [sp, #32]
	.loc 1 2289 36
	ldrb	r3, [sp, #52]
	ubfx	r3, r3, #7, #1
	uxtb	r3, r3
	cmp	r3, #0
	ite	ne
	movne	r3, #1
	moveq	r3, #0
	uxtb	r3, r3
	.loc 1 2289 24
	strb	r3, [sp, #33]
	.loc 1 2290 35
	ldr	r3, .L328
	ldr	r3, [r3, #1156]
	.loc 1 2290 42
	ldr	r3, [r3, #244]
	.loc 1 2290 27
	str	r3, [sp, #36]
	.loc 1 2291 33
	ldr	r3, .L328
	ldrh	r3, [r3, #1012]
	.loc 1 2291 25
	strh	r3, [sp, #40]	@ movhi
	.loc 1 2292 33
	ldr	r3, .L328
	ldrh	r3, [r3, #1014]
	.loc 1 2292 25
	strh	r3, [sp, #42]	@ movhi
	.loc 1 2293 30
	ldr	r3, .L328
	ldr	r3, [r3, #1156]
	.loc 1 2293 48
	ldrsb	r3, [r3, #249]
	.loc 1 2293 22
	strb	r3, [sp, #44]
	.loc 1 2294 29
	ldr	r3, .L328
	ldr	r3, [r3, #1156]
	.loc 1 2294 47
	ldrsb	r3, [r3, #248]
	.loc 1 2294 21
	strb	r3, [sp, #45]
	.loc 1 2295 37
	ldr	r3, .L328
	ldr	r3, [r3, #1156]
	.loc 1 2295 55
	ldrb	r3, [r3, #300]	@ zero_extendqisi2
	.loc 1 2295 29
	strb	r3, [sp, #46]
	.loc 1 2296 28
	ldr	r3, .L328
	ldr	r3, [r3, #1156]
	.loc 1 2296 35
	ldrb	r3, [r3]	@ zero_extendqisi2
	.loc 1 2296 20
	strb	r3, [sp, #47]
	.loc 1 2298 65
	ldr	r3, .L328
	ldr	r3, [r3, #1156]
	.loc 1 2298 28
	add	r1, r3, #249
	.loc 1 2299 55
	ldr	r3, .L328
	ldr	r3, [r3, #1156]
	.loc 1 2298 28
	add	r2, r3, #248
	add	r3, sp, #48
	add	r0, sp, #28
	bl	LoRaMacAdrCalcNext
	mov	r3, r0
	mov	r2, r3
	.loc 1 2298 26
	ldrb	r3, [sp, #52]
	bfi	r3, r2, #6, #1
	strb	r3, [sp, #52]
	.loc 1 2302 14
	ldrb	r2, [sp, #19]	@ zero_extendqisi2
	add	r1, sp, #52
	ldrh	r3, [sp, #16]
	str	r3, [sp]
	ldr	r3, [sp, #12]
	ldr	r0, [sp, #20]
	bl	PrepareFrame
	mov	r3, r0
	strb	r3, [sp, #55]
	.loc 1 2305 7
	ldrb	r3, [sp, #55]	@ zero_extendqisi2
	cmp	r3, #0
	beq	.L323
	.loc 1 2305 41 discriminator 1
	ldrb	r3, [sp, #55]	@ zero_extendqisi2
	cmp	r3, #10
	bne	.L324
.L323:
	.loc 1 2308 18
	movs	r0, #0
	bl	ScheduleTx
	mov	r3, r0
	strb	r3, [sp, #55]
.L324:
	.loc 1 2312 7
	ldrb	r3, [sp, #55]	@ zero_extendqisi2
	cmp	r3, #0
	beq	.L325
	.loc 1 2316 15
	ldr	r3, .L328
	ldr	r3, [r3, #1156]
	.loc 1 2316 51
	ldrb	r2, [sp, #54]
	strb	r2, [r3, #249]
	.loc 1 2317 15
	ldr	r3, .L328
	ldr	r3, [r3, #1156]
	.loc 1 2317 50
	ldrb	r2, [sp, #53]
	strb	r2, [r3, #248]
	b	.L326
.L325:
	.loc 1 2322 15
	ldr	r3, .L328
	ldr	r3, [r3, #1156]
	.loc 1 2322 40
	movs	r2, #0
	strb	r2, [r3, #448]
	.loc 1 2323 15
	ldr	r3, .L328
	ldr	r3, [r3, #1156]
	.loc 1 2323 38
	ldr	r2, [sp, #48]
	str	r2, [r3, #244]
	.loc 1 2325 13
	bl	LoRaMacCommandsRemoveNoneStickyCmds
	mov	r3, r0
	.loc 1 2325 11
	cmp	r3, #0
	beq	.L326
	.loc 1 2327 20
	movs	r3, #19
	b	.L327
.L326:
	.loc 1 2330 12
	ldrb	r3, [sp, #55]	@ zero_extendqisi2
.L327:
	.loc 1 2331 1 discriminator 1
	mov	r0, r3
	add	sp, sp, #60
.LCFI73:
	@ sp needed
	ldr	pc, [sp], #4
.L329:
	.align	2
.L328:
	.word	MacCtx
.LFE34:
	.size	Send, .-Send
	.section	.text.SendReJoinReq,"ax",%progbits
	.align	1
	.global	SendReJoinReq
	.syntax unified
	.thumb
	.thumb_func
	.fpu fpv4-sp-d16
	.type	SendReJoinReq, %function
SendReJoinReq:
.LFB35:
	.loc 1 2334 1
	@ args = 0, pretend = 0, frame = 16
	@ frame_needed = 0, uses_anonymous_args = 0
	push	{lr}
.LCFI74:
	sub	sp, sp, #20
.LCFI75:
	mov	r3, r0
	strb	r3, [sp, #7]
	.loc 1 2335 21
	movs	r3, #0
	strb	r3, [sp, #14]
	.loc 1 2337 18
	movs	r3, #0
	strb	r3, [sp, #12]
	.loc 1 2338 10
	movs	r3, #1
	strb	r3, [sp, #15]
	.loc 1 2341 5
	ldrb	r3, [sp, #7]	@ zero_extendqisi2
	cmp	r3, #255
	bne	.L331
	.loc 1 2345 13
	movs	r0, #0
	bl	SwitchClass
	.loc 1 2347 31
	ldr	r3, .L334
	movs	r2, #0
	strb	r2, [r3, #260]
	.loc 1 2348 49
	ldr	r3, .L334
	ldr	r2, .L334+4
	str	r2, [r3, #264]
	.loc 1 2349 50
	ldr	r3, .L334
	movs	r2, #255
	strb	r2, [r3, #268]
	.loc 1 2351 31
	ldrb	r3, [sp, #12]
	bfc	r3, #5, #3
	strb	r3, [sp, #12]
	.loc 1 2352 61
	ldrb	r2, [sp, #12]	@ zero_extendqisi2
	.loc 1 2352 53
	ldr	r3, .L334
	strb	r2, [r3, #269]
	.loc 1 2354 60
	bl	SecureElementGetJoinEui
	mov	r3, r0
	.loc 1 2354 13
	movs	r2, #8
	mov	r1, r3
	ldr	r0, .L334+8
	bl	memcpy1
	.loc 1 2355 59
	bl	SecureElementGetDevEui
	mov	r3, r0
	.loc 1 2355 13
	movs	r2, #8
	mov	r1, r3
	ldr	r0, .L334+12
	bl	memcpy1
	.loc 1 2357 28
	movs	r3, #0
	strb	r3, [sp, #15]
	.loc 1 2359 13
	b	.L332
.L331:
	.loc 1 2362 20
	movs	r3, #2
	strb	r3, [sp, #14]
	.loc 1 2363 13
	nop
.L332:
	.loc 1 2367 14
	ldrb	r3, [sp, #15]	@ zero_extendqisi2
	mov	r0, r3
	bl	ScheduleTx
	mov	r3, r0
	strb	r3, [sp, #14]
	.loc 1 2368 12
	ldrb	r3, [sp, #14]	@ zero_extendqisi2
	.loc 1 2369 1
	mov	r0, r3
	add	sp, sp, #20
.LCFI76:
	@ sp needed
	ldr	pc, [sp], #4
.L335:
	.align	2
.L334:
	.word	MacCtx
	.word	MacCtx+2
	.word	MacCtx+270
	.word	MacCtx+278
.LFE35:
	.size	SendReJoinReq, .-SendReJoinReq
	.section	.text.CheckForClassBCollision,"ax",%progbits
	.align	1
	.syntax unified
	.thumb
	.thumb_func
	.fpu fpv4-sp-d16
	.type	CheckForClassBCollision, %function
CheckForClassBCollision:
.LFB36:
	.loc 1 2372 1
	@ args = 0, pretend = 0, frame = 0
	@ frame_needed = 0, uses_anonymous_args = 0
	push	{r3, lr}
.LCFI77:
	.loc 1 2373 9
	bl	LoRaMacClassBIsBeaconExpected
	mov	r3, r0
	.loc 1 2373 7
	cmp	r3, #0
	beq	.L337
	.loc 1 2375 16
	movs	r3, #14
	b	.L338
.L337:
	.loc 1 2378 15
	ldr	r3, .L341
	ldr	r3, [r3, #1156]
	.loc 1 2378 22
	ldrb	r3, [r3, #240]	@ zero_extendqisi2
	.loc 1 2378 7
	cmp	r3, #1
	bne	.L339
	.loc 1 2380 13
	bl	LoRaMacClassBIsPingExpected
	mov	r3, r0
	.loc 1 2380 11
	cmp	r3, #0
	beq	.L340
	.loc 1 2382 20
	movs	r3, #15
	b	.L338
.L340:
	.loc 1 2384 18
	bl	LoRaMacClassBIsMulticastExpected
	mov	r3, r0
	.loc 1 2384 16
	cmp	r3, #0
	beq	.L339
	.loc 1 2386 20
	movs	r3, #15
	b	.L338
.L339:
	.loc 1 2389 12
	movs	r3, #0
.L338:
	.loc 1 2390 1
	mov	r0, r3
	pop	{r3, pc}
.L342:
	.align	2
.L341:
	.word	MacCtx
.LFE36:
	.size	CheckForClassBCollision, .-CheckForClassBCollision
	.section	.text.ScheduleTx,"ax",%progbits
	.align	1
	.syntax unified
	.thumb
	.thumb_func
	.fpu fpv4-sp-d16
	.type	ScheduleTx, %function
ScheduleTx:
.LFB37:
	.loc 1 2393 1
	@ args = 0, pretend = 0, frame = 32
	@ frame_needed = 0, uses_anonymous_args = 0
	push	{r4, lr}
.LCFI78:
	sub	sp, sp, #40
.LCFI79:
	mov	r3, r0
	strb	r3, [sp, #15]
	.loc 1 2394 21
	movs	r3, #3
	strb	r3, [sp, #39]
	.loc 1 2395 17
	movs	r3, #0
	str	r3, [sp, #32]
	.loc 1 2397 12
	movs	r3, #0
	str	r3, [sp, #16]
	.loc 1 2400 14
	bl	CheckForClassBCollision
	mov	r3, r0
	strb	r3, [sp, #39]
	.loc 1 2402 7
	ldrb	r3, [sp, #39]	@ zero_extendqisi2
	cmp	r3, #0
	beq	.L344
	.loc 1 2404 16
	ldrb	r3, [sp, #39]	@ zero_extendqisi2
	b	.L356
.L344:
	.loc 1 2408 29
	ldr	r3, .L357
	ldr	r3, [r3, #1156]
	.loc 1 2408 5
	ldrb	r3, [r3, #318]	@ zero_extendqisi2
	mov	r0, r3
	bl	CalculateBackOff
	.loc 1 2410 34
	ldr	r3, .L357
	ldr	r3, [r3, #1156]
	.loc 1 2410 41
	ldr	r3, [r3, #456]
	.loc 1 2410 26
	str	r3, [sp, #20]
	.loc 1 2411 31
	ldr	r3, .L357
	ldr	r3, [r3, #1156]
	.loc 1 2411 49
	ldrsb	r3, [r3, #249]
	.loc 1 2411 23
	strb	r3, [sp, #28]
	.loc 1 2412 39
	ldr	r3, .L357
	ldr	r3, [r3, #1156]
	.loc 1 2412 46
	ldrb	r3, [r3, #317]	@ zero_extendqisi2
	.loc 1 2412 31
	strb	r3, [sp, #30]
	.loc 1 2413 15
	ldr	r3, .L357
	ldr	r3, [r3, #1156]
	.loc 1 2413 22
	ldrb	r3, [r3, #472]	@ zero_extendqisi2
	.loc 1 2413 7
	cmp	r3, #0
	bne	.L346
	.loc 1 2415 25
	movs	r3, #0
	strb	r3, [sp, #29]
	b	.L347
.L346:
	.loc 1 2419 25
	movs	r3, #1
	strb	r3, [sp, #29]
.L347:
	.loc 1 2421 33
	ldr	r3, .L357
	ldr	r3, [r3, #1156]
	.loc 1 2421 40
	ldr	r3, [r3, #452]
	.loc 1 2421 25
	str	r3, [sp, #24]
	.loc 1 2424 39
	ldr	r3, .L357
	ldr	r3, [r3, #1156]
	.loc 1 2424 14
	ldrb	r0, [r3]	@ zero_extendqisi2
	.loc 1 2424 110
	ldr	r3, .L357
	ldr	r3, [r3, #1156]
	.loc 1 2424 14
	add	r3, r3, #456
	add	r2, sp, #32
	add	r1, sp, #20
	str	r3, [sp]
	mov	r3, r2
	ldr	r2, .L357+4
	bl	RegionNextChannel
	mov	r3, r0
	strb	r3, [sp, #39]
	.loc 1 2426 7
	ldrb	r3, [sp, #39]	@ zero_extendqisi2
	cmp	r3, #0
	beq	.L348
	.loc 1 2428 11
	ldrb	r3, [sp, #39]	@ zero_extendqisi2
	cmp	r3, #11
	bne	.L349
	.loc 1 2428 63 discriminator 1
	ldrb	r3, [sp, #15]	@ zero_extendqisi2
	cmp	r3, #0
	beq	.L349
	.loc 1 2433 34
	ldr	r3, [sp, #32]
	.loc 1 2433 15
	cmp	r3, #0
	beq	.L350
	.loc 1 2435 33
	ldr	r3, .L357
	ldr	r3, [r3, #832]
	orr	r3, r3, #32
	ldr	r2, .L357
	str	r3, [r2, #832]
	.loc 1 2436 17
	ldr	r3, [sp, #32]
	mov	r1, r3
	ldr	r0, .L357+8
	bl	TimerSetValue
	.loc 1 2437 17
	ldr	r0, .L357+8
	bl	TimerStart
.L350:
	.loc 1 2439 20
	movs	r3, #0
	b	.L356
.L349:
	.loc 1 2443 20
	ldrb	r3, [sp, #39]	@ zero_extendqisi2
	b	.L356
.L348:
	.loc 1 2448 44
	ldr	r3, .L357
	ldr	r3, [r3, #1156]
	.loc 1 2448 5
	ldrb	r4, [r3]	@ zero_extendqisi2
	.loc 1 2449 65
	ldr	r3, .L357
	ldr	r3, [r3, #1156]
	.loc 1 2449 38
	ldrb	r0, [r3]	@ zero_extendqisi2
	.loc 1 2449 88
	ldr	r3, .L357
	ldr	r3, [r3, #1156]
	.loc 1 2449 38
	ldrb	r1, [r3, #301]	@ zero_extendqisi2
	.loc 1 2449 132
	ldr	r3, .L357
	ldr	r3, [r3, #1156]
	.loc 1 2449 38
	ldrsb	r2, [r3, #249]
	.loc 1 2449 175
	ldr	r3, .L357
	ldr	r3, [r3, #1156]
	.loc 1 2449 193
	ldrb	r3, [r3, #281]	@ zero_extendqisi2
	.loc 1 2449 38
	sxtb	r3, r3
	bl	RegionApplyDrOffset
	mov	r3, r0
	.loc 1 2448 5
	sxtb	r1, r3
	.loc 1 2450 44
	ldr	r3, .L357
	ldr	r3, [r3, #1156]
	.loc 1 2448 5
	ldrb	r2, [r3, #256]	@ zero_extendqisi2
	.loc 1 2451 44
	ldr	r3, .L357
	ldr	r3, [r3, #1156]
	.loc 1 2448 5
	ldr	r3, [r3, #252]
	ldr	r0, .L357+12
	str	r0, [sp]
	mov	r0, r4
	bl	RegionComputeRxWindowParameters
	.loc 1 2454 44
	ldr	r3, .L357
	ldr	r3, [r3, #1156]
	.loc 1 2454 5
	ldrb	r0, [r3]	@ zero_extendqisi2
	.loc 1 2455 44
	ldr	r3, .L357
	ldr	r3, [r3, #1156]
	.loc 1 2455 73
	ldrb	r3, [r3, #288]	@ zero_extendqisi2
	.loc 1 2454 5
	sxtb	r1, r3
	.loc 1 2456 44
	ldr	r3, .L357
	ldr	r3, [r3, #1156]
	.loc 1 2454 5
	ldrb	r2, [r3, #256]	@ zero_extendqisi2
	.loc 1 2457 44
	ldr	r3, .L357
	ldr	r3, [r3, #1156]
	.loc 1 2454 5
	ldr	r3, [r3, #252]
	ldr	r4, .L357+16
	str	r4, [sp]
	bl	RegionComputeRxWindowParameters
	.loc 1 2460 15
	ldr	r3, .L357
	ldr	r3, [r3, #1156]
	.loc 1 2460 22
	ldrb	r3, [r3, #472]	@ zero_extendqisi2
	.loc 1 2460 7
	cmp	r3, #0
	bne	.L351
	.loc 1 2462 39
	ldr	r3, .L357
	ldr	r3, [r3, #1156]
	.loc 1 2462 57
	ldr	r3, [r3, #272]
	.loc 1 2462 99
	ldr	r2, .L357
	ldr	r2, [r2, #964]
	.loc 1 2462 75
	add	r3, r3, r2
	.loc 1 2462 31
	ldr	r2, .L357
	str	r3, [r2, #944]
	.loc 1 2463 39
	ldr	r3, .L357
	ldr	r3, [r3, #1156]
	.loc 1 2463 57
	ldr	r3, [r3, #276]
	.loc 1 2463 99
	ldr	r2, .L357
	ldr	r2, [r2, #984]
	.loc 1 2463 75
	add	r3, r3, r2
	.loc 1 2463 31
	ldr	r2, .L357
	str	r3, [r2, #948]
	b	.L352
.L351:
	.loc 1 2467 13
	add	r3, sp, #16
	mov	r0, r3
	bl	LoRaMacCommandsGetSizeSerializedCmds
	mov	r3, r0
	.loc 1 2467 11
	cmp	r3, #0
	beq	.L353
	.loc 1 2469 20
	movs	r3, #19
	b	.L356
.L353:
	.loc 1 2472 13
	ldr	r3, .L357
	ldrb	r0, [r3, #567]	@ zero_extendqisi2
	.loc 1 2472 62
	ldr	r3, .L357
	ldr	r3, [r3, #1156]
	.loc 1 2472 13
	ldrsb	r3, [r3, #249]
	ldr	r2, [sp, #16]
	uxtb	r2, r2
	mov	r1, r3
	bl	ValidatePayloadLength
	mov	r3, r0
	.loc 1 2472 113
	eor	r3, r3, #1
	uxtb	r3, r3
	.loc 1 2472 11
	cmp	r3, #0
	beq	.L354
	.loc 1 2474 20
	movs	r3, #8
	b	.L356
.L354:
	.loc 1 2476 39
	ldr	r3, .L357
	ldr	r3, [r3, #1156]
	.loc 1 2476 57
	ldr	r3, [r3, #264]
	.loc 1 2476 96
	ldr	r2, .L357
	ldr	r2, [r2, #964]
	.loc 1 2476 72
	add	r3, r3, r2
	.loc 1 2476 31
	ldr	r2, .L357
	str	r3, [r2, #944]
	.loc 1 2477 39
	ldr	r3, .L357
	ldr	r3, [r3, #1156]
	.loc 1 2477 57
	ldr	r3, [r3, #268]
	.loc 1 2477 96
	ldr	r2, .L357
	ldr	r2, [r2, #984]
	.loc 1 2477 72
	add	r3, r3, r2
	.loc 1 2477 31
	ldr	r2, .L357
	str	r3, [r2, #948]
.L352:
	.loc 1 2481 49
	ldr	r3, .L357
	ldr	r3, [r3, #1156]
	.loc 1 2481 67
	ldrsb	r3, [r3, #249]
	.loc 1 2481 30
	uxtb	r3, r3
	ldr	r2, .L357
	ldrb	r2, [r2, #1045]	@ zero_extendqisi2
	mov	r1, r2
	mov	r0, r3
	bl	SecureFrame
	mov	r3, r0
	strb	r3, [sp, #38]
	.loc 1 2482 7
	ldrb	r3, [sp, #38]	@ zero_extendqisi2
	cmp	r3, #0
	beq	.L355
	.loc 1 2484 16
	ldrb	r3, [sp, #38]	@ zero_extendqisi2
	b	.L356
.L355:
	.loc 1 2488 12
	ldr	r3, .L357
	ldrb	r3, [r3, #1045]	@ zero_extendqisi2
	mov	r0, r3
	bl	SendFrameOnChannel
	mov	r3, r0
.L356:
	.loc 1 2489 1 discriminator 1
	mov	r0, r3
	add	sp, sp, #40
.LCFI80:
	@ sp needed
	pop	{r4, pc}
.L358:
	.align	2
.L357:
	.word	MacCtx
	.word	MacCtx+1045
	.word	MacCtx+872
	.word	MacCtx+952
	.word	MacCtx+972
.LFE37:
	.size	ScheduleTx, .-ScheduleTx
	.section	.text.SecureFrame,"ax",%progbits
	.align	1
	.syntax unified
	.thumb
	.thumb_func
	.fpu fpv4-sp-d16
	.type	SecureFrame, %function
SecureFrame:
.LFB38:
	.loc 1 2492 1
	@ args = 0, pretend = 0, frame = 16
	@ frame_needed = 0, uses_anonymous_args = 0
	push	{lr}
.LCFI81:
	sub	sp, sp, #20
.LCFI82:
	mov	r3, r0
	mov	r2, r1
	strb	r3, [sp, #7]
	mov	r3, r2
	strb	r3, [sp, #6]
	.loc 1 2493 27
	movs	r3, #19
	strb	r3, [sp, #15]
	.loc 1 2494 14
	movs	r3, #0
	str	r3, [sp, #8]
	.loc 1 2496 25
	ldr	r3, .L372
	ldrb	r3, [r3, #260]	@ zero_extendqisi2
	.loc 1 2496 5
	cmp	r3, #0
	beq	.L360
	cmp	r3, #4
	beq	.L361
	b	.L371
.L360:
	.loc 1 2499 31
	ldr	r0, .L372+4
	bl	LoRaMacCryptoPrepareJoinRequest
	mov	r3, r0
	strb	r3, [sp, #15]
	.loc 1 2500 15
	ldrb	r3, [sp, #15]	@ zero_extendqisi2
	cmp	r3, #0
	beq	.L363
	.loc 1 2502 24
	movs	r3, #17
	b	.L370
.L363:
	.loc 1 2504 63
	ldr	r3, .L372
	ldrb	r3, [r3, #268]	@ zero_extendqisi2
	uxth	r2, r3
	.loc 1 2504 33
	ldr	r3, .L372
	strh	r2, [r3]	@ movhi
	.loc 1 2505 13
	b	.L365
.L361:
	.loc 1 2508 43
	add	r3, sp, #8
	mov	r0, r3
	bl	LoRaMacCryptoGetFCntUp
	mov	r3, r0
	.loc 1 2508 15
	cmp	r3, #0
	beq	.L366
	.loc 1 2510 24
	movs	r3, #18
	b	.L370
.L366:
	.loc 1 2513 25
	ldr	r3, .L372
	ldrb	r3, [r3, #1040]	@ zero_extendqisi2
	.loc 1 2513 15
	cmp	r3, #0
	bne	.L367
	.loc 1 2513 67 discriminator 1
	ldr	r3, .L372
	ldrb	r3, [r3, #1042]	@ zero_extendqisi2
	.loc 1 2513 56 discriminator 1
	cmp	r3, #1
	bls	.L368
.L367:
	.loc 1 2515 24
	ldr	r3, [sp, #8]
	subs	r3, r3, #1
	str	r3, [sp, #8]
.L368:
	.loc 1 2518 31
	ldr	r0, [sp, #8]
	ldrb	r2, [sp, #6]	@ zero_extendqisi2
	ldrb	r1, [sp, #7]	@ zero_extendqisi2
	ldr	r3, .L372+4
	bl	LoRaMacCryptoSecureMessage
	mov	r3, r0
	strb	r3, [sp, #15]
	.loc 1 2519 15
	ldrb	r3, [sp, #15]	@ zero_extendqisi2
	cmp	r3, #0
	beq	.L369
	.loc 1 2521 24
	movs	r3, #17
	b	.L370
.L369:
	.loc 1 2523 60
	ldr	r3, .L372
	ldrb	r3, [r3, #268]	@ zero_extendqisi2
	uxth	r2, r3
	.loc 1 2523 33
	ldr	r3, .L372
	strh	r2, [r3]	@ movhi
	.loc 1 2524 13
	b	.L365
.L371:
	.loc 1 2528 20
	movs	r3, #3
	b	.L370
.L365:
	.loc 1 2530 12
	movs	r3, #0
.L370:
	.loc 1 2531 1 discriminator 1
	mov	r0, r3
	add	sp, sp, #20
.LCFI83:
	@ sp needed
	ldr	pc, [sp], #4
.L373:
	.align	2
.L372:
	.word	MacCtx
	.word	MacCtx+264
.LFE38:
	.size	SecureFrame, .-SecureFrame
	.section	.text.CalculateBackOff,"ax",%progbits
	.align	1
	.syntax unified
	.thumb
	.thumb_func
	.fpu fpv4-sp-d16
	.type	CalculateBackOff, %function
CalculateBackOff:
.LFB39:
	.loc 1 2534 1
	@ args = 0, pretend = 0, frame = 40
	@ frame_needed = 0, uses_anonymous_args = 0
	push	{lr}
.LCFI84:
	sub	sp, sp, #52
.LCFI85:
	mov	r3, r0
	strb	r3, [sp, #23]
	.loc 1 2537 15
	ldr	r3, .L378
	ldr	r3, [r3, #1156]
	.loc 1 2537 22
	ldrb	r3, [r3, #472]	@ zero_extendqisi2
	.loc 1 2537 7
	cmp	r3, #0
	bne	.L375
	.loc 1 2539 28
	movs	r3, #0
	strb	r3, [sp, #24]
	b	.L376
.L375:
	.loc 1 2543 28
	movs	r3, #1
	strb	r3, [sp, #24]
.L376:
	.loc 1 2545 42
	ldr	r3, .L378
	ldr	r3, [r3, #1156]
	.loc 1 2545 49
	ldrb	r3, [r3, #317]	@ zero_extendqisi2
	.loc 1 2545 34
	strb	r3, [sp, #26]
	.loc 1 2546 25
	ldrb	r3, [sp, #23]
	strb	r3, [sp, #27]
	.loc 1 2547 31
	add	r3, sp, #40
	mov	r0, r3
	bl	SysTimeGetMcuTime
	.loc 1 2547 71
	ldr	r3, .L378
	ldr	r3, [r3, #1156]
	.loc 1 2547 31
	add	r0, sp, #8
	ldr	r2, [r3, #464]
	str	r2, [sp]
	ldr	r3, [r3, #460]
	add	r2, sp, #40
	ldm	r2, {r1, r2}
	bl	SysTimeSub
	add	r3, sp, #28
	add	r2, sp, #8
	ldm	r2, {r0, r1}
	stm	r3, {r0, r1}
	.loc 1 2548 37
	ldr	r3, .L378
	ldr	r3, [r3, #1048]
	.loc 1 2548 29
	str	r3, [sp, #36]
	.loc 1 2549 37
	movs	r3, #0
	strb	r3, [sp, #25]
	.loc 1 2550 40
	ldr	r3, .L378
	ldrb	r3, [r3, #1153]	@ zero_extendqisi2
	and	r3, r3, #4
	uxtb	r3, r3
	.loc 1 2550 7
	cmp	r3, #0
	beq	.L377
	.loc 1 2550 52 discriminator 1
	movs	r0, #0
	bl	LoRaMacConfirmQueueIsCmdActive
	mov	r3, r0
	.loc 1 2550 47 discriminator 1
	cmp	r3, #0
	beq	.L377
	.loc 1 2552 41
	movs	r3, #1
	strb	r3, [sp, #25]
.L377:
	.loc 1 2556 30
	ldr	r3, .L378
	ldr	r3, [r3, #1156]
	.loc 1 2556 5
	ldrb	r3, [r3]	@ zero_extendqisi2
	add	r2, sp, #24
	mov	r1, r2
	mov	r0, r3
	bl	RegionCalcBackOff
	.loc 1 2560 69
	ldr	r3, .L378
	ldr	r3, [r3, #1156]
	.loc 1 2560 76
	ldrh	r3, [r3, #450]
	.loc 1 2560 95
	subs	r2, r3, #1
	.loc 1 2560 48
	ldr	r3, .L378
	ldr	r1, [r3, #1048]
	.loc 1 2560 11
	ldr	r3, .L378
	ldr	r3, [r3, #1156]
	.loc 1 2560 95
	mul	r2, r1, r2
	.loc 1 2560 38
	str	r2, [r3, #456]
	.loc 1 2561 1
	nop
	add	sp, sp, #52
.LCFI86:
	@ sp needed
	ldr	pc, [sp], #4
.L379:
	.align	2
.L378:
	.word	MacCtx
.LFE39:
	.size	CalculateBackOff, .-CalculateBackOff
	.section	.text.RemoveMacCommands,"ax",%progbits
	.align	1
	.syntax unified
	.thumb
	.thumb_func
	.fpu fpv4-sp-d16
	.type	RemoveMacCommands, %function
RemoveMacCommands:
.LFB40:
	.loc 1 2564 1
	@ args = 0, pretend = 0, frame = 8
	@ frame_needed = 0, uses_anonymous_args = 0
	push	{lr}
.LCFI87:
	sub	sp, sp, #12
.LCFI88:
	mov	r3, r0
	strb	r1, [sp, #4]
	strb	r3, [sp, #7]
	mov	r3, r2
	strb	r3, [sp, #6]
	.loc 1 2565 7
	ldrb	r3, [sp, #7]	@ zero_extendqisi2
	cmp	r3, #0
	beq	.L381
	.loc 1 2565 33 discriminator 1
	ldrb	r3, [sp, #7]	@ zero_extendqisi2
	cmp	r3, #1
	bne	.L384
.L381:
	.loc 1 2569 11
	ldrb	r3, [sp, #6]	@ zero_extendqisi2
	cmp	r3, #1
	bne	.L383
	.loc 1 2571 32
	ldrb	r3, [sp, #4]	@ zero_extendqisi2
	and	r3, r3, #32
	uxtb	r3, r3
	.loc 1 2571 15
	cmp	r3, #0
	beq	.L384
	.loc 1 2573 17
	bl	LoRaMacCommandsRemoveStickyAnsCmds
	.loc 1 2581 1
	b	.L384
.L383:
	.loc 1 2578 13
	bl	LoRaMacCommandsRemoveStickyAnsCmds
.L384:
	.loc 1 2581 1
	nop
	add	sp, sp, #12
.LCFI89:
	@ sp needed
	ldr	pc, [sp], #4
.LFE40:
	.size	RemoveMacCommands, .-RemoveMacCommands
	.section	.text.ResetMacParameters,"ax",%progbits
	.align	1
	.syntax unified
	.thumb
	.thumb_func
	.fpu fpv4-sp-d16
	.type	ResetMacParameters, %function
ResetMacParameters:
.LFB41:
	.loc 1 2585 1
	@ args = 0, pretend = 0, frame = 8
	@ frame_needed = 0, uses_anonymous_args = 0
	push	{r4, r5, lr}
.LCFI90:
	sub	sp, sp, #12
.LCFI91:
	.loc 1 2586 11
	ldr	r3, .L386
	ldr	r3, [r3, #1156]
	.loc 1 2586 38
	movs	r2, #0
	strb	r2, [r3, #472]
	.loc 1 2589 11
	ldr	r3, .L386
	ldr	r3, [r3, #1156]
	.loc 1 2589 34
	movs	r2, #0
	str	r2, [r3, #244]
	.loc 1 2591 35
	ldr	r3, .L386
	movs	r2, #0
	strb	r2, [r3, #1040]
	.loc 1 2592 30
	ldr	r3, .L386
	movs	r2, #1
	strb	r2, [r3, #1041]
	.loc 1 2593 37
	ldr	r3, .L386
	movs	r2, #1
	strb	r2, [r3, #1042]
	.loc 1 2594 28
	ldr	r3, .L386
	movs	r2, #0
	strb	r2, [r3, #1043]
	.loc 1 2596 11
	ldr	r3, .L386
	ldr	r3, [r3, #1156]
	.loc 1 2596 30
	movs	r2, #0
	strb	r2, [r3, #316]
	.loc 1 2597 11
	ldr	r3, .L386
	ldr	r3, [r3, #1156]
	.loc 1 2597 37
	movs	r2, #1
	strh	r2, [r3, #450]	@ movhi
	.loc 1 2599 54
	ldr	r3, .L386
	ldr	r2, [r3, #1156]
	.loc 1 2599 11
	ldr	r3, .L386
	ldr	r3, [r3, #1156]
	.loc 1 2599 80
	ldrsb	r2, [r2, #4]
	.loc 1 2599 46
	strb	r2, [r3, #248]
	.loc 1 2600 55
	ldr	r3, .L386
	ldr	r2, [r3, #1156]
	.loc 1 2600 11
	ldr	r3, .L386
	ldr	r3, [r3, #1156]
	.loc 1 2600 81
	ldrsb	r2, [r2, #5]
	.loc 1 2600 47
	strb	r2, [r3, #249]
	.loc 1 2601 50
	ldr	r3, .L386
	ldr	r2, [r3, #1156]
	.loc 1 2601 11
	ldr	r3, .L386
	ldr	r3, [r3, #1156]
	.loc 1 2601 76
	ldrb	r2, [r2, #37]	@ zero_extendqisi2
	.loc 1 2601 42
	strb	r2, [r3, #281]
	.loc 1 2602 49
	ldr	r3, .L386
	ldr	r2, [r3, #1156]
	.loc 1 2602 11
	ldr	r3, .L386
	ldr	r3, [r3, #1156]
	.loc 1 2602 41
	add	r3, r3, #284
	adds	r2, r2, #40
	ldm	r2, {r0, r1}
	stm	r3, {r0, r1}
	.loc 1 2603 49
	ldr	r3, .L386
	ldr	r2, [r3, #1156]
	.loc 1 2603 11
	ldr	r3, .L386
	ldr	r3, [r3, #1156]
	.loc 1 2603 41
	add	r3, r3, #292
	adds	r2, r2, #48
	ldm	r2, {r0, r1}
	stm	r3, {r0, r1}
	.loc 1 2604 54
	ldr	r3, .L386
	ldr	r2, [r3, #1156]
	.loc 1 2604 11
	ldr	r3, .L386
	ldr	r3, [r3, #1156]
	.loc 1 2604 80
	ldrb	r2, [r2, #56]	@ zero_extendqisi2
	.loc 1 2604 46
	strb	r2, [r3, #300]
	.loc 1 2605 56
	ldr	r3, .L386
	ldr	r2, [r3, #1156]
	.loc 1 2605 11
	ldr	r3, .L386
	ldr	r3, [r3, #1156]
	.loc 1 2605 82
	ldrb	r2, [r2, #57]	@ zero_extendqisi2
	.loc 1 2605 48
	strb	r2, [r3, #301]
	.loc 1 2606 46
	ldr	r3, .L386
	ldr	r2, [r3, #1156]
	.loc 1 2606 11
	ldr	r3, .L386
	ldr	r3, [r3, #1156]
	.loc 1 2606 72
	ldr	r2, [r2, #60]	@ float
	.loc 1 2606 38
	str	r2, [r3, #304]	@ float
	.loc 1 2607 50
	ldr	r3, .L386
	ldr	r2, [r3, #1156]
	.loc 1 2607 11
	ldr	r3, .L386
	ldr	r3, [r3, #1156]
	.loc 1 2607 76
	ldr	r2, [r2, #64]	@ float
	.loc 1 2607 42
	str	r2, [r3, #308]	@ float
	.loc 1 2609 29
	ldr	r3, .L386
	movs	r2, #0
	strb	r2, [r3, #1044]
	.loc 1 2610 11
	ldr	r3, .L386
	ldr	r3, [r3, #1156]
	.loc 1 2610 36
	movs	r2, #0
	strb	r2, [r3, #448]
	.loc 1 2614 17
	movs	r3, #1
	strb	r3, [sp, #4]
	.loc 1 2615 19
	movs	r3, #0
	str	r3, [sp]
	.loc 1 2616 31
	ldr	r3, .L386
	ldr	r3, [r3, #1156]
	.loc 1 2616 5
	ldrb	r3, [r3]	@ zero_extendqisi2
	mov	r2, sp
	mov	r1, r2
	mov	r0, r3
	bl	RegionInitDefaults
	.loc 1 2619 20
	ldr	r3, .L386
	movs	r2, #0
	strb	r2, [r3, #1045]
	.loc 1 2620 11
	ldr	r3, .L386
	ldr	r3, [r3, #1156]
	.loc 1 2620 42
	ldr	r2, .L386
	ldrb	r2, [r2, #1045]	@ zero_extendqisi2
	.loc 1 2620 34
	strb	r2, [r3, #318]
	.loc 1 2623 44
	ldr	r3, .L386
	ldrb	r2, [r3, #1045]	@ zero_extendqisi2
	.loc 1 2623 36
	ldr	r3, .L386
	strb	r2, [r3, #972]
	.loc 1 2624 46
	ldr	r3, .L386
	ldr	r3, [r3, #1156]
	.loc 1 2624 75
	ldr	r3, [r3, #284]
	.loc 1 2624 38
	ldr	r2, .L386
	str	r3, [r2, #976]
	.loc 1 2625 54
	ldr	r3, .L386
	ldr	r3, [r3, #1156]
	.loc 1 2625 72
	ldrb	r2, [r3, #301]	@ zero_extendqisi2
	.loc 1 2625 46
	ldr	r3, .L386
	strb	r2, [r3, #988]
	.loc 1 2626 52
	ldr	r3, .L386
	ldr	r3, [r3, #1156]
	.loc 1 2626 59
	ldrb	r2, [r3, #319]	@ zero_extendqisi2
	.loc 1 2626 44
	ldr	r3, .L386
	strb	r2, [r3, #989]
	.loc 1 2627 41
	ldr	r3, .L386
	movs	r2, #0
	strb	r2, [r3, #990]
	.loc 1 2628 35
	ldr	r3, .L386
	movs	r2, #1
	strb	r2, [r3, #991]
	.loc 1 2631 28
	ldr	r2, .L386
	ldr	r3, .L386
	add	r4, r2, #992
	add	r5, r3, #972
	ldmia	r5!, {r0, r1, r2, r3}
	stmia	r4!, {r0, r1, r2, r3}
	ldr	r3, [r5]
	str	r3, [r4]
	.loc 1 2632 41
	ldr	r3, .L386
	movs	r2, #1
	strb	r2, [r3, #1010]
	.loc 1 2633 35
	ldr	r3, .L386
	movs	r2, #2
	strb	r2, [r3, #1011]
	.loc 1 2635 1
	nop
	add	sp, sp, #12
.LCFI92:
	@ sp needed
	pop	{r4, r5, pc}
.L387:
	.align	2
.L386:
	.word	MacCtx
.LFE41:
	.size	ResetMacParameters, .-ResetMacParameters
	.section	.text.RxWindowSetup,"ax",%progbits
	.align	1
	.syntax unified
	.thumb
	.thumb_func
	.fpu fpv4-sp-d16
	.type	RxWindowSetup, %function
RxWindowSetup:
.LFB42:
	.loc 1 2644 1
	@ args = 0, pretend = 0, frame = 8
	@ frame_needed = 0, uses_anonymous_args = 0
	push	{lr}
.LCFI93:
	sub	sp, sp, #12
.LCFI94:
	str	r0, [sp, #4]
	str	r1, [sp]
	.loc 1 2645 5
	ldr	r0, [sp, #4]
	bl	TimerStop
	.loc 1 2648 10
	ldr	r3, .L391
	ldr	r3, [r3, #48]
	.loc 1 2648 5
	blx	r3
.LVL17:
	.loc 1 2650 31
	ldr	r3, .L391+4
	ldr	r3, [r3, #1156]
	.loc 1 2650 9
	ldrb	r3, [r3]	@ zero_extendqisi2
	ldr	r2, .L391+8
	ldr	r1, [sp]
	mov	r0, r3
	bl	RegionRxConfig
	mov	r3, r0
	.loc 1 2650 7
	cmp	r3, #0
	beq	.L390
	.loc 1 2652 14
	ldr	r3, .L391
	ldr	r3, [r3, #52]
	.loc 1 2652 25
	ldr	r2, .L391+4
	ldr	r2, [r2, #1156]
	.loc 1 2652 9
	ldr	r2, [r2, #260]
	mov	r0, r2
	blx	r3
.LVL18:
	.loc 1 2653 33
	ldr	r3, [sp]
	ldrb	r2, [r3, #19]	@ zero_extendqisi2
	.loc 1 2653 23
	ldr	r3, .L391+4
	strb	r2, [r3, #1152]
.L390:
	.loc 1 2655 1
	nop
	add	sp, sp, #12
.LCFI95:
	@ sp needed
	ldr	pc, [sp], #4
.L392:
	.align	2
.L391:
	.word	Radio
	.word	MacCtx
	.word	MacCtx+1056
.LFE42:
	.size	RxWindowSetup, .-RxWindowSetup
	.section	.text.OpenContinuousRxCWindow,"ax",%progbits
	.align	1
	.syntax unified
	.thumb
	.thumb_func
	.fpu fpv4-sp-d16
	.type	OpenContinuousRxCWindow, %function
OpenContinuousRxCWindow:
.LFB43:
	.loc 1 2658 1
	@ args = 0, pretend = 0, frame = 0
	@ frame_needed = 0, uses_anonymous_args = 0
	push	{r4, lr}
.LCFI96:
	sub	sp, sp, #8
.LCFI97:
	.loc 1 2660 44
	ldr	r3, .L396
	ldr	r3, [r3, #1156]
	.loc 1 2660 5
	ldrb	r0, [r3]	@ zero_extendqisi2
	.loc 1 2661 44
	ldr	r3, .L396
	ldr	r3, [r3, #1156]
	.loc 1 2661 73
	ldrb	r3, [r3, #296]	@ zero_extendqisi2
	.loc 1 2660 5
	sxtb	r1, r3
	.loc 1 2662 44
	ldr	r3, .L396
	ldr	r3, [r3, #1156]
	.loc 1 2660 5
	ldrb	r2, [r3, #256]	@ zero_extendqisi2
	.loc 1 2663 44
	ldr	r3, .L396
	ldr	r3, [r3, #1156]
	.loc 1 2660 5
	ldr	r3, [r3, #252]
	ldr	r4, .L396+4
	str	r4, [sp]
	bl	RegionComputeRxWindowParameters
	.loc 1 2666 35
	ldr	r3, .L396
	movs	r2, #2
	strb	r2, [r3, #1011]
	.loc 1 2668 41
	ldr	r3, .L396
	movs	r2, #1
	strb	r2, [r3, #1010]
	.loc 1 2672 31
	ldr	r3, .L396
	ldr	r3, [r3, #1156]
	.loc 1 2672 9
	ldrb	r3, [r3]	@ zero_extendqisi2
	ldr	r2, .L396+8
	ldr	r1, .L396+4
	mov	r0, r3
	bl	RegionRxConfig
	mov	r3, r0
	.loc 1 2672 7
	cmp	r3, #0
	beq	.L395
	.loc 1 2674 14
	ldr	r3, .L396+12
	ldr	r3, [r3, #52]
	.loc 1 2674 9
	movs	r0, #0
	blx	r3
.LVL19:
	.loc 1 2675 47
	ldr	r3, .L396
	ldrb	r2, [r3, #1011]	@ zero_extendqisi2
	.loc 1 2675 23
	ldr	r3, .L396
	strb	r2, [r3, #1152]
.L395:
	.loc 1 2677 1
	nop
	add	sp, sp, #8
.LCFI98:
	@ sp needed
	pop	{r4, pc}
.L397:
	.align	2
.L396:
	.word	MacCtx
	.word	MacCtx+992
	.word	MacCtx+1056
	.word	Radio
.LFE43:
	.size	OpenContinuousRxCWindow, .-OpenContinuousRxCWindow
	.section	.text.PrepareFrame,"ax",%progbits
	.align	1
	.global	PrepareFrame
	.syntax unified
	.thumb
	.thumb_func
	.fpu fpv4-sp-d16
	.type	PrepareFrame, %function
PrepareFrame:
.LFB44:
	.loc 1 2680 1
	@ args = 4, pretend = 0, frame = 32
	@ frame_needed = 0, uses_anonymous_args = 0
	push	{lr}
.LCFI99:
	sub	sp, sp, #36
.LCFI100:
	str	r0, [sp, #12]
	str	r1, [sp, #8]
	str	r3, [sp]
	mov	r3, r2
	strb	r3, [sp, #7]
	.loc 1 2681 25
	ldr	r3, .L417
	movs	r2, #0
	strh	r2, [r3]	@ movhi
	.loc 1 2682 29
	ldr	r3, .L417
	movs	r2, #0
	strb	r2, [r3, #1044]
	.loc 1 2683 14
	movs	r3, #0
	str	r3, [sp, #24]
	.loc 1 2684 12
	movs	r3, #0
	str	r3, [sp, #20]
	.loc 1 2685 13
	movs	r3, #0
	strb	r3, [sp, #31]
	.loc 1 2687 7
	ldr	r3, [sp]
	cmp	r3, #0
	bne	.L399
	.loc 1 2689 21
	movs	r3, #0
	strh	r3, [sp, #40]	@ movhi
.L399:
	.loc 1 2692 5
	ldrh	r3, [sp, #40]
	mov	r2, r3
	ldr	r1, [sp]
	ldr	r0, .L417+4
	bl	memcpy1
	.loc 1 2693 24
	ldrh	r3, [sp, #40]	@ movhi
	uxtb	r2, r3
	ldr	r3, .L417
	strb	r2, [r3, #567]
	.loc 1 2694 33
	ldr	r3, [sp, #12]
	ldrb	r2, [r3]	@ zero_extendqisi2
	.loc 1 2694 25
	ldr	r3, .L417
	strb	r2, [r3, #2]
	.loc 1 2696 25
	ldr	r3, [sp, #12]
	ldrb	r3, [r3]
	ubfx	r3, r3, #5, #3
	uxtb	r3, r3
	.loc 1 2696 5
	cmp	r3, #7
	beq	.L400
	cmp	r3, #7
	bgt	.L401
	cmp	r3, #2
	beq	.L402
	cmp	r3, #4
	bne	.L401
	.loc 1 2699 37
	ldr	r3, .L417
	movs	r2, #1
	strb	r2, [r3, #1044]
.L402:
	.loc 1 2702 31
	ldr	r3, .L417
	movs	r2, #4
	strb	r2, [r3, #260]
	.loc 1 2703 46
	ldr	r3, .L417
	ldr	r2, .L417+8
	str	r2, [r3, #264]
	.loc 1 2704 47
	ldr	r3, .L417
	movs	r2, #255
	strb	r2, [r3, #268]
	.loc 1 2705 58
	ldr	r3, [sp, #12]
	ldrb	r2, [r3]	@ zero_extendqisi2
	.loc 1 2705 50
	ldr	r3, .L417
	strb	r2, [r3, #269]
	.loc 1 2706 45
	ldr	r2, .L417
	ldrb	r3, [sp, #7]
	strb	r3, [r2, #296]
	.loc 1 2707 60
	ldr	r3, .L417
	ldr	r3, [r3, #1156]
	.loc 1 2707 67
	ldr	r3, [r3, #76]
	.loc 1 2707 52
	ldr	r2, .L417
	str	r3, [r2, #272]
	.loc 1 2708 63
	ldr	r3, [sp, #8]
	ldrb	r2, [r3]	@ zero_extendqisi2
	.loc 1 2708 56
	ldr	r3, .L417
	strb	r2, [r3, #276]
	.loc 1 2709 62
	ldr	r3, .L417
	ldrb	r2, [r3, #567]	@ zero_extendqisi2
	.loc 1 2709 54
	ldr	r3, .L417
	strb	r2, [r3, #304]
	.loc 1 2710 50
	ldr	r3, .L417
	ldr	r2, .L417+4
	str	r2, [r3, #300]
	.loc 1 2712 43
	add	r3, sp, #24
	mov	r0, r3
	bl	LoRaMacCryptoGetFCntUp
	mov	r3, r0
	.loc 1 2712 15
	cmp	r3, #0
	beq	.L403
	.loc 1 2714 24
	movs	r3, #18
	b	.L414
.L403:
	.loc 1 2716 51
	ldr	r3, [sp, #24]
	uxth	r2, r3
	.loc 1 2716 49
	ldr	r3, .L417
	strh	r2, [r3, #278]	@ movhi
	.loc 1 2719 42
	ldr	r3, .L417
	movs	r2, #0
	strb	r2, [r3, #1089]
	.loc 1 2720 44
	ldr	r3, .L417
	movs	r2, #0
	strb	r2, [r3, #1088]
	.loc 1 2721 46
	ldr	r3, [sp, #24]
	ldr	r2, .L417
	str	r3, [r2, #1096]
	.loc 1 2724 17
	add	r3, sp, #20
	mov	r0, r3
	bl	LoRaMacCommandsGetSizeSerializedCmds
	mov	r3, r0
	.loc 1 2724 15
	cmp	r3, #0
	beq	.L405
	.loc 1 2726 24
	movs	r3, #19
	b	.L414
.L405:
	.loc 1 2729 29
	ldr	r3, [sp, #20]
	.loc 1 2729 15
	cmp	r3, #0
	beq	.L415
	.loc 1 2731 75
	ldr	r3, .L417
	ldr	r3, [r3, #1156]
	.loc 1 2731 33
	ldrsb	r3, [r3, #249]
	mov	r0, r3
	bl	GetMaxAppPayloadWithoutFOptsLength
	mov	r3, r0
	strb	r3, [sp, #31]
	.loc 1 2734 29
	ldr	r3, .L417
	ldrb	r3, [r3, #567]	@ zero_extendqisi2
	.loc 1 2734 19
	cmp	r3, #0
	beq	.L407
	.loc 1 2734 65 discriminator 1
	ldr	r3, [sp, #20]
	.loc 1 2734 48 discriminator 1
	cmp	r3, #15
	bhi	.L407
	.loc 1 2736 25
	add	r3, sp, #20
	ldr	r2, .L417+12
	mov	r1, r3
	movs	r0, #15
	bl	LoRaMacCommandsSerializeCmds
	mov	r3, r0
	.loc 1 2736 23
	cmp	r3, #0
	beq	.L408
	.loc 1 2738 32
	movs	r3, #19
	b	.L414
.L408:
	.loc 1 2740 42
	ldr	r3, [sp, #20]
	and	r3, r3, #15
	uxtb	r1, r3
	ldr	r2, [sp, #8]
	ldrb	r3, [r2]
	bfi	r3, r1, #0, #4
	strb	r3, [r2]
	.loc 1 2742 71
	ldr	r3, [sp, #8]
	ldrb	r2, [r3]	@ zero_extendqisi2
	.loc 1 2742 64
	ldr	r3, .L417
	strb	r2, [r3, #276]
	.loc 1 2769 13
	b	.L415
.L407:
	.loc 1 2745 34
	ldr	r3, .L417
	ldrb	r3, [r3, #567]	@ zero_extendqisi2
	.loc 1 2745 24
	cmp	r3, #0
	beq	.L409
	.loc 1 2745 70 discriminator 1
	ldr	r3, [sp, #20]
	.loc 1 2745 53 discriminator 1
	cmp	r3, #15
	bls	.L409
	.loc 1 2748 25
	ldrb	r0, [sp, #31]	@ zero_extendqisi2
	.loc 1 2748 90
	ldr	r3, .L417
	ldr	r3, [r3, #1156]
	.loc 1 2748 97
	add	r2, r3, #320
	.loc 1 2748 25
	add	r3, sp, #20
	mov	r1, r3
	bl	LoRaMacCommandsSerializeCmds
	mov	r3, r0
	.loc 1 2748 23
	cmp	r3, #0
	beq	.L410
	.loc 1 2750 32
	movs	r3, #19
	b	.L414
.L410:
	.loc 1 2752 28
	movs	r3, #10
	b	.L414
.L409:
	.loc 1 2757 25
	ldrb	r0, [sp, #31]	@ zero_extendqisi2
	.loc 1 2757 90
	ldr	r3, .L417
	ldr	r3, [r3, #1156]
	.loc 1 2757 97
	add	r2, r3, #320
	.loc 1 2757 25
	add	r3, sp, #20
	mov	r1, r3
	bl	LoRaMacCommandsSerializeCmds
	mov	r3, r0
	.loc 1 2757 23
	cmp	r3, #0
	beq	.L411
	.loc 1 2759 32
	movs	r3, #19
	b	.L414
.L411:
	.loc 1 2762 53
	ldr	r3, .L417
	movs	r2, #0
	strb	r2, [r3, #296]
	.loc 1 2764 66
	ldr	r3, .L417
	ldr	r3, [r3, #1156]
	.loc 1 2764 60
	add	r3, r3, #320
	.loc 1 2764 58
	ldr	r2, .L417
	str	r3, [r2, #300]
	.loc 1 2765 62
	ldr	r3, [sp, #20]
	uxtb	r2, r3
	ldr	r3, .L417
	strb	r2, [r3, #304]
	.loc 1 2769 13
	b	.L415
.L400:
	.loc 1 2771 15
	ldr	r3, [sp]
	cmp	r3, #0
	beq	.L416
	.loc 1 2771 48 discriminator 1
	ldr	r3, .L417
	ldrb	r3, [r3, #567]	@ zero_extendqisi2
	.loc 1 2771 37 discriminator 1
	cmp	r3, #0
	beq	.L416
	.loc 1 2773 17
	ldr	r0, .L417+16
	.loc 1 2773 98
	ldr	r3, .L417
	ldrb	r3, [r3, #567]	@ zero_extendqisi2
	.loc 1 2773 17
	uxth	r3, r3
	mov	r2, r3
	ldr	r1, [sp]
	bl	memcpy1
	.loc 1 2774 71
	ldr	r3, .L417
	ldrb	r3, [r3, #567]	@ zero_extendqisi2
	uxth	r3, r3
	.loc 1 2774 63
	adds	r3, r3, #1
	uxth	r2, r3
	.loc 1 2774 37
	ldr	r3, .L417
	strh	r2, [r3]	@ movhi
	.loc 1 2776 13
	b	.L416
.L401:
	.loc 1 2778 20
	movs	r3, #2
	b	.L414
.L415:
	.loc 1 2769 13
	nop
	b	.L412
.L416:
	.loc 1 2776 13
	nop
.L412:
	.loc 1 2781 12
	movs	r3, #0
.L414:
	.loc 1 2782 1 discriminator 1
	mov	r0, r3
	add	sp, sp, #36
.LCFI101:
	@ sp needed
	ldr	pc, [sp], #4
.L418:
	.align	2
.L417:
	.word	MacCtx
	.word	MacCtx+312
	.word	MacCtx+2
	.word	MacCtx+280
	.word	MacCtx+3
.LFE44:
	.size	PrepareFrame, .-PrepareFrame
	.section	.text.SendFrameOnChannel,"ax",%progbits
	.align	1
	.global	SendFrameOnChannel
	.syntax unified
	.thumb
	.thumb_func
	.fpu fpv4-sp-d16
	.type	SendFrameOnChannel, %function
SendFrameOnChannel:
.LFB45:
	.loc 1 2785 1
	@ args = 0, pretend = 0, frame = 32
	@ frame_needed = 0, uses_anonymous_args = 0
	push	{lr}
.LCFI102:
	sub	sp, sp, #36
.LCFI103:
	mov	r3, r0
	strb	r3, [sp, #7]
	.loc 1 2787 12
	movs	r3, #0
	strb	r3, [sp, #11]
	.loc 1 2789 22
	ldrb	r3, [sp, #7]
	strb	r3, [sp, #12]
	.loc 1 2790 31
	ldr	r3, .L425
	ldr	r3, [r3, #1156]
	.loc 1 2790 49
	ldrsb	r3, [r3, #249]
	.loc 1 2790 23
	strb	r3, [sp, #13]
	.loc 1 2791 30
	ldr	r3, .L425
	ldr	r3, [r3, #1156]
	.loc 1 2791 48
	ldrsb	r3, [r3, #248]
	.loc 1 2791 22
	strb	r3, [sp, #14]
	.loc 1 2792 30
	ldr	r3, .L425
	ldr	r3, [r3, #1156]
	.loc 1 2792 48
	ldr	r3, [r3, #304]	@ float
	.loc 1 2792 22
	str	r3, [sp, #16]	@ float
	.loc 1 2793 34
	ldr	r3, .L425
	ldr	r3, [r3, #1156]
	.loc 1 2793 52
	ldr	r3, [r3, #308]	@ float
	.loc 1 2793 26
	str	r3, [sp, #20]	@ float
	.loc 1 2794 29
	ldr	r3, .L425
	ldrh	r3, [r3]
	.loc 1 2794 21
	strh	r3, [sp, #24]	@ movhi
	.loc 1 2796 27
	ldr	r3, .L425
	ldr	r3, [r3, #1156]
	.loc 1 2796 5
	ldrb	r0, [r3]	@ zero_extendqisi2
	add	r2, sp, #11
	add	r1, sp, #12
	ldr	r3, .L425+4
	bl	RegionTxConfig
	.loc 1 2798 31
	ldr	r3, .L425
	movs	r2, #1
	strb	r2, [r3, #1085]
	.loc 1 2799 41
	ldr	r3, .L425
	ldr	r3, [r3, #1156]
	.loc 1 2799 59
	ldrsb	r3, [r3, #249]
	uxtb	r2, r3
	.loc 1 2799 33
	ldr	r3, .L425
	strb	r2, [r3, #1086]
	.loc 1 2800 32
	ldrsb	r2, [sp, #11]
	ldr	r3, .L425
	strb	r2, [r3, #1087]
	.loc 1 2801 32
	ldrb	r3, [sp, #7]	@ zero_extendqisi2
	ldr	r2, .L425
	str	r3, [r2, #1100]
	.loc 1 2804 44
	ldr	r3, .L425
	ldr	r3, [r3, #1048]
	.loc 1 2804 36
	ldr	r2, .L425
	str	r3, [r2, #1092]
	.loc 1 2805 44
	ldr	r3, .L425
	ldr	r3, [r3, #1048]
	.loc 1 2805 36
	ldr	r2, .L425
	str	r3, [r2, #1108]
	.loc 1 2807 9
	bl	LoRaMacClassBIsBeaconModeActive
	mov	r3, r0
	.loc 1 2807 7
	cmp	r3, #0
	beq	.L420
.LBB21:
	.loc 1 2811 37
	ldr	r3, .L425
	ldr	r3, [r3, #1048]
	mov	r0, r3
	bl	LoRaMacClassBIsUplinkCollision
	str	r0, [sp, #28]
	.loc 1 2813 11
	ldr	r3, [sp, #28]
	cmp	r3, #0
	beq	.L420
	.loc 1 2815 20
	movs	r3, #16
	b	.L424
.L420:
.LBE21:
	.loc 1 2819 15
	ldr	r3, .L425
	ldr	r3, [r3, #1156]
	.loc 1 2819 22
	ldrb	r3, [r3, #240]	@ zero_extendqisi2
	.loc 1 2819 7
	cmp	r3, #1
	bne	.L422
	.loc 1 2822 9
	bl	LoRaMacClassBStopRxSlots
.L422:
	.loc 1 2825 5
	bl	LoRaMacClassBHaltBeaconing
	.loc 1 2827 21
	ldr	r3, .L425
	ldr	r3, [r3, #832]
	orr	r3, r3, #2
	ldr	r2, .L425
	str	r3, [r2, #832]
	.loc 1 2828 15
	ldr	r3, .L425
	ldrb	r3, [r3, #1044]	@ zero_extendqisi2
	.loc 1 2828 33
	eor	r3, r3, #1
	uxtb	r3, r3
	.loc 1 2828 7
	cmp	r3, #0
	beq	.L423
	.loc 1 2830 15
	ldr	r3, .L425
	ldrb	r3, [r3, #1040]	@ zero_extendqisi2
	.loc 1 2830 38
	adds	r3, r3, #1
	uxtb	r2, r3
	ldr	r3, .L425
	strb	r2, [r3, #1040]
.L423:
	.loc 1 2834 10
	ldr	r3, .L425+8
	ldr	r3, [r3, #40]
	.loc 1 2834 41
	ldr	r2, .L425
	ldrh	r2, [r2]
	.loc 1 2834 5
	uxtb	r2, r2
	mov	r1, r2
	ldr	r0, .L425+12
	blx	r3
.LVL20:
	.loc 1 2836 12
	movs	r3, #0
.L424:
	.loc 1 2837 1 discriminator 1
	mov	r0, r3
	add	sp, sp, #36
.LCFI104:
	@ sp needed
	ldr	pc, [sp], #4
.L426:
	.align	2
.L425:
	.word	MacCtx
	.word	MacCtx+1048
	.word	Radio
	.word	MacCtx+2
.LFE45:
	.size	SendFrameOnChannel, .-SendFrameOnChannel
	.section	.text.SetTxContinuousWave,"ax",%progbits
	.align	1
	.global	SetTxContinuousWave
	.syntax unified
	.thumb
	.thumb_func
	.fpu fpv4-sp-d16
	.type	SetTxContinuousWave, %function
SetTxContinuousWave:
.LFB46:
	.loc 1 2840 1
	@ args = 0, pretend = 0, frame = 24
	@ frame_needed = 0, uses_anonymous_args = 0
	push	{lr}
.LCFI105:
	sub	sp, sp, #28
.LCFI106:
	mov	r3, r0
	strh	r3, [sp, #6]	@ movhi
	.loc 1 2843 36
	ldr	r3, .L429
	ldrb	r3, [r3, #1045]	@ zero_extendqisi2
	.loc 1 2843 28
	strb	r3, [sp, #8]
	.loc 1 2844 37
	ldr	r3, .L429
	ldr	r3, [r3, #1156]
	.loc 1 2844 55
	ldrsb	r3, [r3, #249]
	.loc 1 2844 29
	strb	r3, [sp, #9]
	.loc 1 2845 36
	ldr	r3, .L429
	ldr	r3, [r3, #1156]
	.loc 1 2845 54
	ldrsb	r3, [r3, #248]
	.loc 1 2845 28
	strb	r3, [sp, #10]
	.loc 1 2846 36
	ldr	r3, .L429
	ldr	r3, [r3, #1156]
	.loc 1 2846 54
	ldr	r3, [r3, #304]	@ float
	.loc 1 2846 28
	str	r3, [sp, #12]	@ float
	.loc 1 2847 40
	ldr	r3, .L429
	ldr	r3, [r3, #1156]
	.loc 1 2847 58
	ldr	r3, [r3, #308]	@ float
	.loc 1 2847 32
	str	r3, [sp, #16]	@ float
	.loc 1 2848 28
	ldrh	r3, [sp, #6]	@ movhi
	strh	r3, [sp, #20]	@ movhi
	.loc 1 2850 36
	ldr	r3, .L429
	ldr	r3, [r3, #1156]
	.loc 1 2850 5
	ldrb	r3, [r3]	@ zero_extendqisi2
	add	r2, sp, #8
	mov	r1, r2
	mov	r0, r3
	bl	RegionSetContinuousWave
	.loc 1 2852 21
	ldr	r3, .L429
	ldr	r3, [r3, #832]
	orr	r3, r3, #2
	ldr	r2, .L429
	str	r3, [r2, #832]
	.loc 1 2854 12
	movs	r3, #0
	.loc 1 2855 1
	mov	r0, r3
	add	sp, sp, #28
.LCFI107:
	@ sp needed
	ldr	pc, [sp], #4
.L430:
	.align	2
.L429:
	.word	MacCtx
.LFE46:
	.size	SetTxContinuousWave, .-SetTxContinuousWave
	.section	.text.SetTxContinuousWave1,"ax",%progbits
	.align	1
	.global	SetTxContinuousWave1
	.syntax unified
	.thumb
	.thumb_func
	.fpu fpv4-sp-d16
	.type	SetTxContinuousWave1, %function
SetTxContinuousWave1:
.LFB47:
	.loc 1 2858 1
	@ args = 0, pretend = 0, frame = 8
	@ frame_needed = 0, uses_anonymous_args = 0
	push	{lr}
.LCFI108:
	sub	sp, sp, #12
.LCFI109:
	mov	r3, r0
	str	r1, [sp]
	strh	r3, [sp, #6]	@ movhi
	mov	r3, r2
	strb	r3, [sp, #5]
	.loc 1 2859 10
	ldr	r3, .L433
	ldr	r3, [r3, #60]
	.loc 1 2859 5
	ldrsb	r1, [sp, #5]
	ldrh	r2, [sp, #6]
	ldr	r0, [sp]
	blx	r3
.LVL21:
	.loc 1 2861 21
	ldr	r3, .L433+4
	ldr	r3, [r3, #832]
	orr	r3, r3, #2
	ldr	r2, .L433+4
	str	r3, [r2, #832]
	.loc 1 2863 12
	movs	r3, #0
	.loc 1 2864 1
	mov	r0, r3
	add	sp, sp, #12
.LCFI110:
	@ sp needed
	ldr	pc, [sp], #4
.L434:
	.align	2
.L433:
	.word	Radio
	.word	MacCtx
.LFE47:
	.size	SetTxContinuousWave1, .-SetTxContinuousWave1
	.section	.text.GetCtxs,"ax",%progbits
	.align	1
	.global	GetCtxs
	.syntax unified
	.thumb
	.thumb_func
	.fpu fpv4-sp-d16
	.type	GetCtxs, %function
GetCtxs:
.LFB48:
	.loc 1 2867 1
	@ args = 0, pretend = 0, frame = 8
	@ frame_needed = 0, uses_anonymous_args = 0
	push	{lr}
.LCFI111:
	sub	sp, sp, #12
.LCFI112:
	.loc 1 2868 24
	ldr	r3, .L437
	ldr	r2, .L437+4
	str	r2, [r3]
	.loc 1 2869 28
	ldr	r3, .L437
	mov	r2, #480
	str	r2, [r3, #4]
	.loc 1 2870 29
	ldr	r0, .L437+8
	bl	LoRaMacCryptoGetNvmCtx
	mov	r3, r0
	.loc 1 2870 27
	ldr	r2, .L437
	str	r3, [r2, #16]
	.loc 1 2871 23
	movs	r3, #0
	str	r3, [sp, #4]
	.loc 1 2872 52
	ldr	r3, .L437+12
	ldr	r3, [r3, #1156]
	.loc 1 2872 29
	ldrb	r3, [r3]	@ zero_extendqisi2
	add	r2, sp, #4
	mov	r1, r2
	mov	r0, r3
	bl	RegionGetNvmCtx
	mov	r3, r0
	.loc 1 2872 27
	ldr	r2, .L437
	str	r3, [r2, #8]
	.loc 1 2873 39
	ldr	r3, [sp, #4]
	.loc 1 2873 31
	ldr	r2, .L437
	str	r3, [r2, #12]
	.loc 1 2874 36
	ldr	r0, .L437+16
	bl	SecureElementGetNvmCtx
	mov	r3, r0
	.loc 1 2874 34
	ldr	r2, .L437
	str	r3, [r2, #24]
	.loc 1 2875 31
	ldr	r0, .L437+20
	bl	LoRaMacCommandsGetNvmCtx
	mov	r3, r0
	.loc 1 2875 29
	ldr	r2, .L437
	str	r3, [r2, #32]
	.loc 1 2876 29
	ldr	r0, .L437+24
	bl	LoRaMacClassBGetNvmCtx
	mov	r3, r0
	.loc 1 2876 27
	ldr	r2, .L437
	str	r3, [r2, #40]
	.loc 1 2877 35
	ldr	r0, .L437+28
	bl	LoRaMacConfirmQueueGetNvmCtx
	mov	r3, r0
	.loc 1 2877 33
	ldr	r2, .L437
	str	r3, [r2, #48]
	.loc 1 2878 12
	ldr	r3, .L437
	.loc 1 2879 1
	mov	r0, r3
	add	sp, sp, #12
.LCFI113:
	@ sp needed
	ldr	pc, [sp], #4
.L438:
	.align	2
.L437:
	.word	Contexts
	.word	NvmMacCtx
	.word	Contexts+20
	.word	MacCtx
	.word	Contexts+28
	.word	Contexts+36
	.word	Contexts+44
	.word	Contexts+52
.LFE48:
	.size	GetCtxs, .-GetCtxs
	.section	.text.RestoreCtxs,"ax",%progbits
	.align	1
	.global	RestoreCtxs
	.syntax unified
	.thumb
	.thumb_func
	.fpu fpv4-sp-d16
	.type	RestoreCtxs, %function
RestoreCtxs:
.LFB49:
	.loc 1 2882 1
	@ args = 0, pretend = 0, frame = 16
	@ frame_needed = 0, uses_anonymous_args = 0
	push	{lr}
.LCFI114:
	sub	sp, sp, #20
.LCFI115:
	str	r0, [sp, #4]
	.loc 1 2883 7
	ldr	r3, [sp, #4]
	cmp	r3, #0
	bne	.L440
	.loc 1 2885 16
	movs	r3, #3
	b	.L449
.L440:
	.loc 1 2887 15
	ldr	r3, .L450
	ldr	r3, [r3, #832]
	.loc 1 2887 7
	cmp	r3, #1
	beq	.L442
	.loc 1 2889 16
	movs	r3, #1
	b	.L449
.L442:
	.loc 1 2892 17
	ldr	r3, [sp, #4]
	ldr	r3, [r3]
	.loc 1 2892 7
	cmp	r3, #0
	beq	.L443
	.loc 1 2894 64
	ldr	r3, [sp, #4]
	ldr	r1, [r3]
	.loc 1 2894 85
	ldr	r3, [sp, #4]
	ldr	r3, [r3, #4]
	.loc 1 2894 9
	uxth	r3, r3
	mov	r2, r3
	ldr	r0, .L450+4
	bl	memcpy1
.L443:
	.loc 1 2898 17
	movs	r3, #2
	strb	r3, [sp, #12]
	.loc 1 2899 29
	ldr	r3, [sp, #4]
	ldr	r3, [r3, #8]
	.loc 1 2899 19
	str	r3, [sp, #8]
	.loc 1 2900 31
	ldr	r3, .L450
	ldr	r3, [r3, #1156]
	.loc 1 2900 5
	ldrb	r3, [r3]	@ zero_extendqisi2
	add	r2, sp, #8
	mov	r1, r2
	mov	r0, r3
	bl	RegionInitDefaults
	.loc 1 2903 44
	ldr	r3, .L450
	ldrb	r2, [r3, #1045]	@ zero_extendqisi2
	.loc 1 2903 36
	ldr	r3, .L450
	strb	r2, [r3, #992]
	.loc 1 2904 46
	ldr	r3, .L450
	ldr	r3, [r3, #1156]
	.loc 1 2904 75
	ldr	r3, [r3, #292]
	.loc 1 2904 38
	ldr	r2, .L450
	str	r3, [r2, #996]
	.loc 1 2905 54
	ldr	r3, .L450
	ldr	r3, [r3, #1156]
	.loc 1 2905 72
	ldrb	r2, [r3, #301]	@ zero_extendqisi2
	.loc 1 2905 46
	ldr	r3, .L450
	strb	r2, [r3, #1008]
	.loc 1 2906 52
	ldr	r3, .L450
	ldr	r3, [r3, #1156]
	.loc 1 2906 59
	ldrb	r2, [r3, #319]	@ zero_extendqisi2
	.loc 1 2906 44
	ldr	r3, .L450
	strb	r2, [r3, #1009]
	.loc 1 2907 41
	ldr	r3, .L450
	movs	r2, #1
	strb	r2, [r3, #1010]
	.loc 1 2908 35
	ldr	r3, .L450
	movs	r2, #2
	strb	r2, [r3, #1011]
	.loc 1 2910 9
	ldr	r3, [sp, #4]
	ldr	r3, [r3, #24]
	mov	r0, r3
	bl	SecureElementRestoreNvmCtx
	mov	r3, r0
	.loc 1 2910 7
	cmp	r3, #0
	beq	.L444
	.loc 1 2912 16
	movs	r3, #17
	b	.L449
.L444:
	.loc 1 2915 9
	ldr	r3, [sp, #4]
	ldr	r3, [r3, #16]
	mov	r0, r3
	bl	LoRaMacCryptoRestoreNvmCtx
	mov	r3, r0
	.loc 1 2915 7
	cmp	r3, #0
	beq	.L445
	.loc 1 2917 16
	movs	r3, #17
	b	.L449
.L445:
	.loc 1 2920 9
	ldr	r3, [sp, #4]
	ldr	r3, [r3, #32]
	mov	r0, r3
	bl	LoRaMacCommandsRestoreNvmCtx
	mov	r3, r0
	.loc 1 2920 7
	cmp	r3, #0
	beq	.L446
	.loc 1 2922 16
	movs	r3, #19
	b	.L449
.L446:
	.loc 1 2925 9
	ldr	r3, [sp, #4]
	ldr	r3, [r3, #40]
	mov	r0, r3
	bl	LoRaMacClassBRestoreNvmCtx
	mov	r3, r0
	.loc 1 2925 62
	eor	r3, r3, #1
	uxtb	r3, r3
	.loc 1 2925 7
	cmp	r3, #0
	beq	.L447
	.loc 1 2927 16
	movs	r3, #20
	b	.L449
.L447:
	.loc 1 2930 9
	ldr	r3, [sp, #4]
	ldr	r3, [r3, #48]
	mov	r0, r3
	bl	LoRaMacConfirmQueueRestoreNvmCtx
	mov	r3, r0
	.loc 1 2930 74
	eor	r3, r3, #1
	uxtb	r3, r3
	.loc 1 2930 7
	cmp	r3, #0
	beq	.L448
	.loc 1 2932 16
	movs	r3, #21
	b	.L449
.L448:
	.loc 1 2935 12
	movs	r3, #0
.L449:
	.loc 1 2936 1 discriminator 1
	mov	r0, r3
	add	sp, sp, #20
.LCFI116:
	@ sp needed
	ldr	pc, [sp], #4
.L451:
	.align	2
.L450:
	.word	MacCtx
	.word	NvmMacCtx
.LFE49:
	.size	RestoreCtxs, .-RestoreCtxs
	.section	.text.DetermineFrameType,"ax",%progbits
	.align	1
	.global	DetermineFrameType
	.syntax unified
	.thumb
	.thumb_func
	.fpu fpv4-sp-d16
	.type	DetermineFrameType, %function
DetermineFrameType:
.LFB50:
	.loc 1 2939 1
	@ args = 0, pretend = 0, frame = 8
	@ frame_needed = 0, uses_anonymous_args = 0
	@ link register save eliminated.
	sub	sp, sp, #8
.LCFI117:
	str	r0, [sp, #4]
	str	r1, [sp]
	.loc 1 2940 7
	ldr	r3, [sp, #4]
	cmp	r3, #0
	beq	.L453
	.loc 1 2940 28 discriminator 1
	ldr	r3, [sp]
	cmp	r3, #0
	bne	.L454
.L453:
	.loc 1 2942 16
	movs	r3, #3
	b	.L455
.L454:
	.loc 1 2965 44
	ldr	r3, [sp, #4]
	ldrb	r3, [r3, #12]	@ zero_extendqisi2
	and	r3, r3, #15
	uxtb	r3, r3
	.loc 1 2965 7
	cmp	r3, #0
	beq	.L456
	.loc 1 2965 61 discriminator 1
	ldr	r3, [sp, #4]
	ldrb	r3, [r3, #32]	@ zero_extendqisi2
	.loc 1 2965 50 discriminator 1
	cmp	r3, #0
	beq	.L456
	.loc 1 2967 16
	ldr	r3, [sp]
	movs	r2, #0
	strb	r2, [r3]
	b	.L457
.L456:
	.loc 1 2969 20
	ldr	r3, [sp, #4]
	ldrb	r3, [r3, #40]	@ zero_extendqisi2
	.loc 1 2969 12
	cmp	r3, #0
	bne	.L458
	.loc 1 2971 16
	ldr	r3, [sp]
	movs	r2, #1
	strb	r2, [r3]
	b	.L457
.L458:
	.loc 1 2973 49
	ldr	r3, [sp, #4]
	ldrb	r3, [r3, #12]	@ zero_extendqisi2
	and	r3, r3, #15
	uxtb	r3, r3
	.loc 1 2973 12
	cmp	r3, #0
	bne	.L459
	.loc 1 2973 67 discriminator 1
	ldr	r3, [sp, #4]
	ldrb	r3, [r3, #32]	@ zero_extendqisi2
	.loc 1 2973 56 discriminator 1
	cmp	r3, #0
	bne	.L459
	.loc 1 2975 16
	ldr	r3, [sp]
	movs	r2, #2
	strb	r2, [r3]
	b	.L457
.L459:
	.loc 1 2977 49
	ldr	r3, [sp, #4]
	ldrb	r3, [r3, #12]	@ zero_extendqisi2
	and	r3, r3, #15
	uxtb	r3, r3
	.loc 1 2977 12
	cmp	r3, #0
	bne	.L460
	.loc 1 2977 67 discriminator 1
	ldr	r3, [sp, #4]
	ldrb	r3, [r3, #32]	@ zero_extendqisi2
	.loc 1 2977 56 discriminator 1
	cmp	r3, #0
	beq	.L460
	.loc 1 2979 16
	ldr	r3, [sp]
	movs	r2, #3
	strb	r2, [r3]
	b	.L457
.L460:
	.loc 1 2984 16
	movs	r3, #23
	b	.L455
.L457:
	.loc 1 2987 12
	movs	r3, #0
.L455:
	.loc 1 2988 1
	mov	r0, r3
	add	sp, sp, #8
.LCFI118:
	@ sp needed
	bx	lr
.LFE50:
	.size	DetermineFrameType, .-DetermineFrameType
	.section	.text.CheckRetransUnconfirmedUplink,"ax",%progbits
	.align	1
	.syntax unified
	.thumb
	.thumb_func
	.fpu fpv4-sp-d16
	.type	CheckRetransUnconfirmedUplink, %function
CheckRetransUnconfirmedUplink:
.LFB51:
	.loc 1 2991 1
	@ args = 0, pretend = 0, frame = 0
	@ frame_needed = 0, uses_anonymous_args = 0
	@ link register save eliminated.
	.loc 1 2993 15
	ldr	r3, .L466
	ldrb	r2, [r3, #1040]	@ zero_extendqisi2
	.loc 1 2994 15
	ldr	r3, .L466
	ldr	r3, [r3, #1156]
	.loc 1 2994 33
	ldrb	r3, [r3, #280]	@ zero_extendqisi2
	.loc 1 2993 7
	cmp	r2, r3
	bcc	.L462
	.loc 1 2996 16
	movs	r3, #1
	b	.L463
.L462:
	.loc 1 2998 43
	ldr	r3, .L466
	ldrb	r3, [r3, #1153]	@ zero_extendqisi2
	and	r3, r3, #2
	uxtb	r3, r3
	.loc 1 2998 12
	cmp	r3, #0
	beq	.L464
	.loc 1 3001 19
	ldr	r3, .L466
	ldr	r3, [r3, #1156]
	.loc 1 3001 26
	ldrb	r3, [r3, #240]	@ zero_extendqisi2
	.loc 1 3001 11
	cmp	r3, #0
	bne	.L465
	.loc 1 3003 20
	movs	r3, #1
	b	.L463
.L465:
	.loc 1 3007 38
	ldr	r3, .L466
	ldrb	r3, [r3, #1069]	@ zero_extendqisi2
	.loc 1 3007 15
	cmp	r3, #0
	bne	.L464
	.loc 1 3009 24
	movs	r3, #1
	b	.L463
.L464:
	.loc 1 3013 12
	movs	r3, #0
.L463:
	.loc 1 3014 1
	mov	r0, r3
	bx	lr
.L467:
	.align	2
.L466:
	.word	MacCtx
.LFE51:
	.size	CheckRetransUnconfirmedUplink, .-CheckRetransUnconfirmedUplink
	.section	.text.CheckRetransConfirmedUplink,"ax",%progbits
	.align	1
	.syntax unified
	.thumb
	.thumb_func
	.fpu fpv4-sp-d16
	.type	CheckRetransConfirmedUplink, %function
CheckRetransConfirmedUplink:
.LFB52:
	.loc 1 3017 1
	@ args = 0, pretend = 0, frame = 0
	@ frame_needed = 0, uses_anonymous_args = 0
	@ link register save eliminated.
	.loc 1 3019 15
	ldr	r3, .L472
	ldrb	r2, [r3, #1042]	@ zero_extendqisi2
	.loc 1 3020 15
	ldr	r3, .L472
	ldrb	r3, [r3, #1041]	@ zero_extendqisi2
	.loc 1 3019 7
	cmp	r2, r3
	bcc	.L469
	.loc 1 3022 16
	movs	r3, #1
	b	.L470
.L469:
	.loc 1 3024 43
	ldr	r3, .L472
	ldrb	r3, [r3, #1153]	@ zero_extendqisi2
	and	r3, r3, #2
	uxtb	r3, r3
	.loc 1 3024 12
	cmp	r3, #0
	beq	.L471
	.loc 1 3026 31
	ldr	r3, .L472
	ldrb	r3, [r3, #1088]	@ zero_extendqisi2
	.loc 1 3026 11
	cmp	r3, #0
	beq	.L471
	.loc 1 3028 20
	movs	r3, #1
	b	.L470
.L471:
	.loc 1 3031 12
	movs	r3, #0
.L470:
	.loc 1 3032 1
	mov	r0, r3
	bx	lr
.L473:
	.align	2
.L472:
	.word	MacCtx
.LFE52:
	.size	CheckRetransConfirmedUplink, .-CheckRetransConfirmedUplink
	.section	.text.StopRetransmission,"ax",%progbits
	.align	1
	.syntax unified
	.thumb
	.thumb_func
	.fpu fpv4-sp-d16
	.type	StopRetransmission, %function
StopRetransmission:
.LFB53:
	.loc 1 3035 1
	@ args = 0, pretend = 0, frame = 0
	@ frame_needed = 0, uses_anonymous_args = 0
	@ link register save eliminated.
	.loc 1 3036 40
	ldr	r3, .L478
	ldrb	r3, [r3, #1153]	@ zero_extendqisi2
	and	r3, r3, #2
	uxtb	r3, r3
	.loc 1 3036 7
	cmp	r3, #0
	beq	.L475
	.loc 1 3037 34 discriminator 1
	ldr	r3, .L478
	ldrb	r3, [r3, #1069]	@ zero_extendqisi2
	.loc 1 3036 47 discriminator 1
	cmp	r3, #0
	beq	.L476
	.loc 1 3038 34
	ldr	r3, .L478
	ldrb	r3, [r3, #1069]	@ zero_extendqisi2
	.loc 1 3037 61
	cmp	r3, #1
	beq	.L476
.L475:
	.loc 1 3041 19
	ldr	r3, .L478
	ldr	r3, [r3, #1156]
	.loc 1 3041 26
	ldrb	r3, [r3, #242]	@ zero_extendqisi2
	.loc 1 3041 11
	cmp	r3, #0
	beq	.L476
	.loc 1 3043 19
	ldr	r3, .L478
	ldr	r3, [r3, #1156]
	.loc 1 3043 26
	ldr	r2, [r3, #244]
	.loc 1 3043 41
	adds	r2, r2, #1
	str	r2, [r3, #244]
.L476:
	.loc 1 3047 35
	ldr	r3, .L478
	movs	r2, #0
	strb	r2, [r3, #1040]
	.loc 1 3048 29
	ldr	r3, .L478
	movs	r2, #0
	strb	r2, [r3, #1044]
	.loc 1 3049 28
	ldr	r3, .L478
	movs	r2, #0
	strb	r2, [r3, #1043]
	.loc 1 3050 21
	ldr	r3, .L478
	ldr	r3, [r3, #832]
	bic	r3, r3, #2
	ldr	r2, .L478
	str	r3, [r2, #832]
	.loc 1 3052 12
	movs	r3, #1
	.loc 1 3053 1
	mov	r0, r3
	bx	lr
.L479:
	.align	2
.L478:
	.word	MacCtx
.LFE53:
	.size	StopRetransmission, .-StopRetransmission
	.section	.text.AckTimeoutRetriesProcess,"ax",%progbits
	.align	1
	.syntax unified
	.thumb
	.thumb_func
	.fpu fpv4-sp-d16
	.type	AckTimeoutRetriesProcess, %function
AckTimeoutRetriesProcess:
.LFB54:
	.loc 1 3056 1
	@ args = 0, pretend = 0, frame = 8
	@ frame_needed = 0, uses_anonymous_args = 0
	push	{lr}
.LCFI119:
	sub	sp, sp, #12
.LCFI120:
	.loc 1 3057 15
	ldr	r3, .L483
	ldrb	r2, [r3, #1042]	@ zero_extendqisi2
	.loc 1 3057 49
	ldr	r3, .L483
	ldrb	r3, [r3, #1041]	@ zero_extendqisi2
	.loc 1 3057 7
	cmp	r2, r3
	bcs	.L482
	.loc 1 3059 15
	ldr	r3, .L483
	ldrb	r3, [r3, #1042]	@ zero_extendqisi2
	.loc 1 3059 40
	adds	r3, r3, #1
	uxtb	r2, r3
	ldr	r3, .L483
	strb	r2, [r3, #1042]
	.loc 1 3060 21
	ldr	r3, .L483
	ldrb	r3, [r3, #1042]	@ zero_extendqisi2
	.loc 1 3060 53
	and	r3, r3, #1
	uxtb	r3, r3
	.loc 1 3060 11
	cmp	r3, #0
	beq	.L482
.LBB22:
	.loc 1 3065 30
	movs	r3, #34
	strb	r3, [sp, #4]
	.loc 1 3066 44
	ldr	r3, .L483
	ldr	r3, [r3, #1156]
	.loc 1 3066 62
	ldrb	r3, [r3, #300]	@ zero_extendqisi2
	.loc 1 3066 36
	strb	r3, [sp, #6]
	.loc 1 3067 37
	ldr	r3, .L483
	ldr	r3, [r3, #1156]
	.loc 1 3067 55
	ldrsb	r3, [r3, #249]
	.loc 1 3067 29
	strb	r3, [sp, #5]
	.loc 1 3068 49
	ldr	r3, .L483
	ldr	r3, [r3, #1156]
	.loc 1 3068 24
	ldrb	r3, [r3]	@ zero_extendqisi2
	add	r2, sp, #4
	mov	r1, r2
	mov	r0, r3
	bl	RegionGetPhyParam
	mov	r3, r0
	str	r3, [sp]
	.loc 1 3069 65
	ldr	r2, [sp]
	.loc 1 3069 19
	ldr	r3, .L483
	ldr	r3, [r3, #1156]
	.loc 1 3069 55
	sxtb	r2, r2
	strb	r2, [r3, #249]
.L482:
.LBE22:
	.loc 1 3072 1
	nop
	add	sp, sp, #12
.LCFI121:
	@ sp needed
	ldr	pc, [sp], #4
.L484:
	.align	2
.L483:
	.word	MacCtx
.LFE54:
	.size	AckTimeoutRetriesProcess, .-AckTimeoutRetriesProcess
	.section	.text.AckTimeoutRetriesFinalize,"ax",%progbits
	.align	1
	.syntax unified
	.thumb
	.thumb_func
	.fpu fpv4-sp-d16
	.type	AckTimeoutRetriesFinalize, %function
AckTimeoutRetriesFinalize:
.LFB55:
	.loc 1 3075 1
	@ args = 0, pretend = 0, frame = 8
	@ frame_needed = 0, uses_anonymous_args = 0
	push	{lr}
.LCFI122:
	sub	sp, sp, #12
.LCFI123:
	.loc 1 3076 27
	ldr	r3, .L487
	ldrb	r3, [r3, #1088]	@ zero_extendqisi2
	.loc 1 3076 40
	eor	r3, r3, #1
	uxtb	r3, r3
	.loc 1 3076 7
	cmp	r3, #0
	beq	.L486
.LBB23:
	.loc 1 3079 21
	movs	r3, #1
	strb	r3, [sp, #4]
	.loc 1 3080 33
	ldr	r3, .L487+4
	ldr	r3, [r3, #8]
	.loc 1 3080 23
	str	r3, [sp]
	.loc 1 3081 35
	ldr	r3, .L487
	ldr	r3, [r3, #1156]
	.loc 1 3081 9
	ldrb	r3, [r3]	@ zero_extendqisi2
	mov	r2, sp
	mov	r1, r2
	mov	r0, r3
	bl	RegionInitDefaults
	.loc 1 3083 33
	ldr	r3, .L487
	movs	r2, #0
	strb	r2, [r3, #1044]
	.loc 1 3084 40
	ldr	r3, .L487
	movs	r2, #0
	strb	r2, [r3, #1088]
.L486:
.LBE23:
	.loc 1 3086 42
	ldr	r3, .L487
	ldrb	r2, [r3, #1042]	@ zero_extendqisi2
	.loc 1 3086 34
	ldr	r3, .L487
	strb	r2, [r3, #1089]
	.loc 1 3087 1
	nop
	add	sp, sp, #12
.LCFI124:
	@ sp needed
	ldr	pc, [sp], #4
.L488:
	.align	2
.L487:
	.word	MacCtx
	.word	Contexts
.LFE55:
	.size	AckTimeoutRetriesFinalize, .-AckTimeoutRetriesFinalize
	.section	.text.CallNvmCtxCallback,"ax",%progbits
	.align	1
	.syntax unified
	.thumb
	.thumb_func
	.fpu fpv4-sp-d16
	.type	CallNvmCtxCallback, %function
CallNvmCtxCallback:
.LFB56:
	.loc 1 3090 1
	@ args = 0, pretend = 0, frame = 8
	@ frame_needed = 0, uses_anonymous_args = 0
	push	{lr}
.LCFI125:
	sub	sp, sp, #12
.LCFI126:
	mov	r3, r0
	strb	r3, [sp, #7]
	.loc 1 3091 17
	ldr	r3, .L492
	ldr	r3, [r3, #840]
	.loc 1 3091 7
	cmp	r3, #0
	beq	.L491
	.loc 1 3091 52 discriminator 1
	ldr	r3, .L492
	ldr	r3, [r3, #840]
	.loc 1 3091 65 discriminator 1
	ldr	r3, [r3, #8]
	.loc 1 3091 41 discriminator 1
	cmp	r3, #0
	beq	.L491
	.loc 1 3093 15
	ldr	r3, .L492
	ldr	r3, [r3, #840]
	.loc 1 3093 28
	ldr	r3, [r3, #8]
	.loc 1 3093 9
	ldrb	r2, [sp, #7]	@ zero_extendqisi2
	mov	r0, r2
	blx	r3
.LVL22:
.L491:
	.loc 1 3095 1
	nop
	add	sp, sp, #12
.LCFI127:
	@ sp needed
	ldr	pc, [sp], #4
.L493:
	.align	2
.L492:
	.word	MacCtx
.LFE56:
	.size	CallNvmCtxCallback, .-CallNvmCtxCallback
	.section	.text.EventMacNvmCtxChanged,"ax",%progbits
	.align	1
	.syntax unified
	.thumb
	.thumb_func
	.fpu fpv4-sp-d16
	.type	EventMacNvmCtxChanged, %function
EventMacNvmCtxChanged:
.LFB57:
	.loc 1 3098 1
	@ args = 0, pretend = 0, frame = 0
	@ frame_needed = 0, uses_anonymous_args = 0
	push	{r3, lr}
.LCFI128:
	.loc 1 3099 5
	movs	r0, #0
	bl	CallNvmCtxCallback
	.loc 1 3100 1
	nop
	pop	{r3, pc}
.LFE57:
	.size	EventMacNvmCtxChanged, .-EventMacNvmCtxChanged
	.section	.text.EventRegionNvmCtxChanged,"ax",%progbits
	.align	1
	.syntax unified
	.thumb
	.thumb_func
	.fpu fpv4-sp-d16
	.type	EventRegionNvmCtxChanged, %function
EventRegionNvmCtxChanged:
.LFB58:
	.loc 1 3103 1
	@ args = 0, pretend = 0, frame = 0
	@ frame_needed = 0, uses_anonymous_args = 0
	push	{r3, lr}
.LCFI129:
	.loc 1 3104 5
	movs	r0, #1
	bl	CallNvmCtxCallback
	.loc 1 3105 1
	nop
	pop	{r3, pc}
.LFE58:
	.size	EventRegionNvmCtxChanged, .-EventRegionNvmCtxChanged
	.section	.text.EventCryptoNvmCtxChanged,"ax",%progbits
	.align	1
	.syntax unified
	.thumb
	.thumb_func
	.fpu fpv4-sp-d16
	.type	EventCryptoNvmCtxChanged, %function
EventCryptoNvmCtxChanged:
.LFB59:
	.loc 1 3108 1
	@ args = 0, pretend = 0, frame = 0
	@ frame_needed = 0, uses_anonymous_args = 0
	push	{r3, lr}
.LCFI130:
	.loc 1 3109 5
	movs	r0, #2
	bl	CallNvmCtxCallback
	.loc 1 3110 1
	nop
	pop	{r3, pc}
.LFE59:
	.size	EventCryptoNvmCtxChanged, .-EventCryptoNvmCtxChanged
	.section	.text.EventSecureElementNvmCtxChanged,"ax",%progbits
	.align	1
	.syntax unified
	.thumb
	.thumb_func
	.fpu fpv4-sp-d16
	.type	EventSecureElementNvmCtxChanged, %function
EventSecureElementNvmCtxChanged:
.LFB60:
	.loc 1 3113 1
	@ args = 0, pretend = 0, frame = 0
	@ frame_needed = 0, uses_anonymous_args = 0
	push	{r3, lr}
.LCFI131:
	.loc 1 3114 5
	movs	r0, #3
	bl	CallNvmCtxCallback
	.loc 1 3115 1
	nop
	pop	{r3, pc}
.LFE60:
	.size	EventSecureElementNvmCtxChanged, .-EventSecureElementNvmCtxChanged
	.section	.text.EventCommandsNvmCtxChanged,"ax",%progbits
	.align	1
	.syntax unified
	.thumb
	.thumb_func
	.fpu fpv4-sp-d16
	.type	EventCommandsNvmCtxChanged, %function
EventCommandsNvmCtxChanged:
.LFB61:
	.loc 1 3118 1
	@ args = 0, pretend = 0, frame = 0
	@ frame_needed = 0, uses_anonymous_args = 0
	push	{r3, lr}
.LCFI132:
	.loc 1 3119 5
	movs	r0, #4
	bl	CallNvmCtxCallback
	.loc 1 3120 1
	nop
	pop	{r3, pc}
.LFE61:
	.size	EventCommandsNvmCtxChanged, .-EventCommandsNvmCtxChanged
	.section	.text.EventClassBNvmCtxChanged,"ax",%progbits
	.align	1
	.syntax unified
	.thumb
	.thumb_func
	.fpu fpv4-sp-d16
	.type	EventClassBNvmCtxChanged, %function
EventClassBNvmCtxChanged:
.LFB62:
	.loc 1 3123 1
	@ args = 0, pretend = 0, frame = 0
	@ frame_needed = 0, uses_anonymous_args = 0
	push	{r3, lr}
.LCFI133:
	.loc 1 3124 5
	movs	r0, #5
	bl	CallNvmCtxCallback
	.loc 1 3125 1
	nop
	pop	{r3, pc}
.LFE62:
	.size	EventClassBNvmCtxChanged, .-EventClassBNvmCtxChanged
	.section	.text.EventConfirmQueueNvmCtxChanged,"ax",%progbits
	.align	1
	.syntax unified
	.thumb
	.thumb_func
	.fpu fpv4-sp-d16
	.type	EventConfirmQueueNvmCtxChanged, %function
EventConfirmQueueNvmCtxChanged:
.LFB63:
	.loc 1 3128 1
	@ args = 0, pretend = 0, frame = 0
	@ frame_needed = 0, uses_anonymous_args = 0
	push	{r3, lr}
.LCFI134:
	.loc 1 3129 5
	movs	r0, #6
	bl	CallNvmCtxCallback
	.loc 1 3130 1
	nop
	pop	{r3, pc}
.LFE63:
	.size	EventConfirmQueueNvmCtxChanged, .-EventConfirmQueueNvmCtxChanged
	.section	.text.IsRequestPending,"ax",%progbits
	.align	1
	.syntax unified
	.thumb
	.thumb_func
	.fpu fpv4-sp-d16
	.type	IsRequestPending, %function
IsRequestPending:
.LFB64:
	.loc 1 3133 1
	@ args = 0, pretend = 0, frame = 0
	@ frame_needed = 0, uses_anonymous_args = 0
	@ link register save eliminated.
	.loc 1 3134 40
	ldr	r3, .L505
	ldrb	r3, [r3, #1153]	@ zero_extendqisi2
	and	r3, r3, #4
	uxtb	r3, r3
	.loc 1 3134 7
	cmp	r3, #0
	bne	.L502
	.loc 1 3135 40 discriminator 1
	ldr	r3, .L505
	ldrb	r3, [r3, #1153]	@ zero_extendqisi2
	and	r3, r3, #1
	uxtb	r3, r3
	.loc 1 3134 47 discriminator 1
	cmp	r3, #0
	beq	.L503
.L502:
	.loc 1 3137 16
	movs	r3, #1
	b	.L504
.L503:
	.loc 1 3139 12
	movs	r3, #0
.L504:
	.loc 1 3140 1
	mov	r0, r3
	bx	lr
.L506:
	.align	2
.L505:
	.word	MacCtx
.LFE64:
	.size	IsRequestPending, .-IsRequestPending
	.section	.text.LoRaMacInitialization,"ax",%progbits
	.align	1
	.global	LoRaMacInitialization
	.syntax unified
	.thumb
	.thumb_func
	.fpu fpv4-sp-d16
	.type	LoRaMacInitialization, %function
LoRaMacInitialization:
.LFB65:
	.loc 1 3144 1
	@ args = 0, pretend = 0, frame = 88
	@ frame_needed = 0, uses_anonymous_args = 0
	push	{r4, lr}
.LCFI135:
	sub	sp, sp, #88
.LCFI136:
	str	r0, [sp, #20]
	str	r1, [sp, #16]
	mov	r3, r2
	strb	r3, [sp, #15]
	.loc 1 3150 7
	ldr	r3, [sp, #20]
	cmp	r3, #0
	beq	.L508
	.loc 1 3150 32 discriminator 1
	ldr	r3, [sp, #16]
	cmp	r3, #0
	bne	.L509
.L508:
	.loc 1 3153 16
	movs	r3, #3
	b	.L519
.L509:
	.loc 1 3156 21
	ldr	r3, [sp, #20]
	ldr	r3, [r3]
	.loc 1 3156 7
	cmp	r3, #0
	beq	.L511
	.loc 1 3157 21 discriminator 1
	ldr	r3, [sp, #20]
	ldr	r3, [r3, #4]
	.loc 1 3156 48 discriminator 1
	cmp	r3, #0
	beq	.L511
	.loc 1 3158 21
	ldr	r3, [sp, #20]
	ldr	r3, [r3, #8]
	.loc 1 3157 51
	cmp	r3, #0
	beq	.L511
	.loc 1 3159 21
	ldr	r3, [sp, #20]
	ldr	r3, [r3, #12]
	.loc 1 3158 48
	cmp	r3, #0
	bne	.L512
.L511:
	.loc 1 3161 16
	movs	r3, #3
	b	.L519
.L512:
	.loc 1 3164 9
	ldrb	r3, [sp, #15]	@ zero_extendqisi2
	mov	r0, r3
	bl	RegionIsActive
	mov	r3, r0
	.loc 1 3164 34
	eor	r3, r3, #1
	uxtb	r3, r3
	.loc 1 3164 7
	cmp	r3, #0
	beq	.L513
	.loc 1 3166 16
	movs	r3, #9
	b	.L519
.L513:
	.loc 1 3170 5
	ldr	r1, .L520
	ldr	r0, [sp, #20]
	bl	LoRaMacConfirmQueueInit
	.loc 1 3173 5
	mov	r2, #480
	movs	r1, #0
	ldr	r0, .L520+4
	bl	memset1
	.loc 1 3174 5
	mov	r2, #1160
	movs	r1, #0
	ldr	r0, .L520+8
	bl	memset1
	.loc 1 3175 19
	ldr	r3, .L520+8
	ldr	r2, .L520+4
	str	r2, [r3, #1156]
	.loc 1 3178 37
	ldr	r3, .L520+8
	movs	r2, #1
	strb	r2, [r3, #1042]
	.loc 1 3179 30
	ldr	r3, .L520+8
	movs	r2, #1
	strb	r2, [r3, #1041]
	.loc 1 3180 11
	ldr	r3, .L520+8
	ldr	r3, [r3, #1156]
	.loc 1 3180 27
	ldrb	r2, [sp, #15]
	strb	r2, [r3]
	.loc 1 3181 11
	ldr	r3, .L520+8
	ldr	r3, [r3, #1156]
	.loc 1 3181 32
	movs	r2, #0
	strb	r2, [r3, #240]
	.loc 1 3182 11
	ldr	r3, .L520+8
	ldr	r3, [r3, #1156]
	.loc 1 3182 36
	movs	r2, #0
	strb	r2, [r3, #319]
	.loc 1 3185 34
	movs	r3, #1
	strb	r3, [sp, #39]
	.loc 1 3186 34
	movs	r3, #0
	strb	r3, [sp, #38]
	.loc 1 3187 34
	movs	r3, #3
	strb	r3, [sp, #37]
	.loc 1 3188 34
	movs	r3, #0
	strb	r3, [sp, #36]
	.loc 1 3189 11
	ldr	r3, .L520+8
	ldr	r3, [r3, #1156]
	.loc 1 3189 28
	ldr	r2, [sp, #36]
	str	r2, [r3, #468]
	.loc 1 3192 22
	movs	r3, #15
	strb	r3, [sp, #84]
	.loc 1 3193 41
	ldr	r3, .L520+8
	ldr	r3, [r3, #1156]
	.loc 1 3193 16
	ldrb	r3, [r3]	@ zero_extendqisi2
	add	r2, sp, #84
	mov	r1, r2
	mov	r0, r3
	bl	RegionGetPhyParam
	mov	r3, r0
	str	r3, [sp, #80]
	.loc 1 3194 51
	ldr	r2, [sp, #80]
	.loc 1 3194 11
	ldr	r3, .L520+8
	ldr	r3, [r3, #1156]
	.loc 1 3194 34
	cmp	r2, #0
	ite	ne
	movne	r2, #1
	moveq	r2, #0
	uxtb	r2, r2
	.loc 1 3194 32
	strb	r2, [r3, #317]
	.loc 1 3196 22
	movs	r3, #10
	strb	r3, [sp, #84]
	.loc 1 3197 41
	ldr	r3, .L520+8
	ldr	r3, [r3, #1156]
	.loc 1 3197 16
	ldrb	r3, [r3]	@ zero_extendqisi2
	add	r2, sp, #84
	mov	r1, r2
	mov	r0, r3
	bl	RegionGetPhyParam
	mov	r3, r0
	str	r3, [sp, #80]
	.loc 1 3198 64
	ldr	r2, [sp, #80]
	.loc 1 3198 11
	ldr	r3, .L520+8
	ldr	r3, [r3, #1156]
	.loc 1 3198 54
	sxtb	r2, r2
	strb	r2, [r3, #4]
	.loc 1 3200 22
	movs	r3, #6
	strb	r3, [sp, #84]
	.loc 1 3201 41
	ldr	r3, .L520+8
	ldr	r3, [r3, #1156]
	.loc 1 3201 16
	ldrb	r3, [r3]	@ zero_extendqisi2
	add	r2, sp, #84
	mov	r1, r2
	mov	r0, r3
	bl	RegionGetPhyParam
	mov	r3, r0
	str	r3, [sp, #80]
	.loc 1 3202 65
	ldr	r2, [sp, #80]
	.loc 1 3202 11
	ldr	r3, .L520+8
	ldr	r3, [r3, #1156]
	.loc 1 3202 55
	sxtb	r2, r2
	strb	r2, [r3, #5]
	.loc 1 3204 22
	movs	r3, #16
	strb	r3, [sp, #84]
	.loc 1 3205 41
	ldr	r3, .L520+8
	ldr	r3, [r3, #1156]
	.loc 1 3205 16
	ldrb	r3, [r3]	@ zero_extendqisi2
	add	r2, sp, #84
	mov	r1, r2
	mov	r0, r3
	bl	RegionGetPhyParam
	mov	r3, r0
	str	r3, [sp, #80]
	.loc 1 3206 11
	ldr	r3, .L520+8
	ldr	r3, [r3, #1156]
	.loc 1 3206 60
	ldr	r2, [sp, #80]
	.loc 1 3206 50
	str	r2, [r3, #16]
	.loc 1 3208 22
	movs	r3, #17
	strb	r3, [sp, #84]
	.loc 1 3209 41
	ldr	r3, .L520+8
	ldr	r3, [r3, #1156]
	.loc 1 3209 16
	ldrb	r3, [r3]	@ zero_extendqisi2
	add	r2, sp, #84
	mov	r1, r2
	mov	r0, r3
	bl	RegionGetPhyParam
	mov	r3, r0
	str	r3, [sp, #80]
	.loc 1 3210 11
	ldr	r3, .L520+8
	ldr	r3, [r3, #1156]
	.loc 1 3210 62
	ldr	r2, [sp, #80]
	.loc 1 3210 52
	str	r2, [r3, #20]
	.loc 1 3212 22
	movs	r3, #18
	strb	r3, [sp, #84]
	.loc 1 3213 41
	ldr	r3, .L520+8
	ldr	r3, [r3, #1156]
	.loc 1 3213 16
	ldrb	r3, [r3]	@ zero_extendqisi2
	add	r2, sp, #84
	mov	r1, r2
	mov	r0, r3
	bl	RegionGetPhyParam
	mov	r3, r0
	str	r3, [sp, #80]
	.loc 1 3214 11
	ldr	r3, .L520+8
	ldr	r3, [r3, #1156]
	.loc 1 3214 62
	ldr	r2, [sp, #80]
	.loc 1 3214 52
	str	r2, [r3, #24]
	.loc 1 3216 22
	movs	r3, #19
	strb	r3, [sp, #84]
	.loc 1 3217 41
	ldr	r3, .L520+8
	ldr	r3, [r3, #1156]
	.loc 1 3217 16
	ldrb	r3, [r3]	@ zero_extendqisi2
	add	r2, sp, #84
	mov	r1, r2
	mov	r0, r3
	bl	RegionGetPhyParam
	mov	r3, r0
	str	r3, [sp, #80]
	.loc 1 3218 11
	ldr	r3, .L520+8
	ldr	r3, [r3, #1156]
	.loc 1 3218 65
	ldr	r2, [sp, #80]
	.loc 1 3218 55
	str	r2, [r3, #28]
	.loc 1 3220 22
	movs	r3, #20
	strb	r3, [sp, #84]
	.loc 1 3221 41
	ldr	r3, .L520+8
	ldr	r3, [r3, #1156]
	.loc 1 3221 16
	ldrb	r3, [r3]	@ zero_extendqisi2
	add	r2, sp, #84
	mov	r1, r2
	mov	r0, r3
	bl	RegionGetPhyParam
	mov	r3, r0
	str	r3, [sp, #80]
	.loc 1 3222 11
	ldr	r3, .L520+8
	ldr	r3, [r3, #1156]
	.loc 1 3222 65
	ldr	r2, [sp, #80]
	.loc 1 3222 55
	str	r2, [r3, #32]
	.loc 1 3224 22
	movs	r3, #23
	strb	r3, [sp, #84]
	.loc 1 3225 41
	ldr	r3, .L520+8
	ldr	r3, [r3, #1156]
	.loc 1 3225 16
	ldrb	r3, [r3]	@ zero_extendqisi2
	add	r2, sp, #84
	mov	r1, r2
	mov	r0, r3
	bl	RegionGetPhyParam
	mov	r3, r0
	str	r3, [sp, #80]
	.loc 1 3226 60
	ldr	r2, [sp, #80]
	.loc 1 3226 11
	ldr	r3, .L520+8
	ldr	r3, [r3, #1156]
	.loc 1 3226 50
	uxtb	r2, r2
	strb	r2, [r3, #37]
	.loc 1 3228 22
	movs	r3, #24
	strb	r3, [sp, #84]
	.loc 1 3229 41
	ldr	r3, .L520+8
	ldr	r3, [r3, #1156]
	.loc 1 3229 16
	ldrb	r3, [r3]	@ zero_extendqisi2
	add	r2, sp, #84
	mov	r1, r2
	mov	r0, r3
	bl	RegionGetPhyParam
	mov	r3, r0
	str	r3, [sp, #80]
	.loc 1 3230 11
	ldr	r3, .L520+8
	ldr	r3, [r3, #1156]
	.loc 1 3230 69
	ldr	r2, [sp, #80]
	.loc 1 3230 59
	str	r2, [r3, #40]
	.loc 1 3231 11
	ldr	r3, .L520+8
	ldr	r3, [r3, #1156]
	.loc 1 3231 69
	ldr	r2, [sp, #80]
	.loc 1 3231 59
	str	r2, [r3, #48]
	.loc 1 3233 22
	movs	r3, #25
	strb	r3, [sp, #84]
	.loc 1 3234 41
	ldr	r3, .L520+8
	ldr	r3, [r3, #1156]
	.loc 1 3234 16
	ldrb	r3, [r3]	@ zero_extendqisi2
	add	r2, sp, #84
	mov	r1, r2
	mov	r0, r3
	bl	RegionGetPhyParam
	mov	r3, r0
	str	r3, [sp, #80]
	.loc 1 3235 68
	ldr	r2, [sp, #80]
	.loc 1 3235 11
	ldr	r3, .L520+8
	ldr	r3, [r3, #1156]
	.loc 1 3235 58
	uxtb	r2, r2
	strb	r2, [r3, #44]
	.loc 1 3236 68
	ldr	r2, [sp, #80]
	.loc 1 3236 11
	ldr	r3, .L520+8
	ldr	r3, [r3, #1156]
	.loc 1 3236 58
	uxtb	r2, r2
	strb	r2, [r3, #52]
	.loc 1 3238 22
	movs	r3, #30
	strb	r3, [sp, #84]
	.loc 1 3239 41
	ldr	r3, .L520+8
	ldr	r3, [r3, #1156]
	.loc 1 3239 16
	ldrb	r3, [r3]	@ zero_extendqisi2
	add	r2, sp, #84
	mov	r1, r2
	mov	r0, r3
	bl	RegionGetPhyParam
	mov	r3, r0
	str	r3, [sp, #80]
	.loc 1 3240 64
	ldr	r2, [sp, #80]
	.loc 1 3240 11
	ldr	r3, .L520+8
	ldr	r3, [r3, #1156]
	.loc 1 3240 54
	uxtb	r2, r2
	strb	r2, [r3, #56]
	.loc 1 3242 22
	movs	r3, #31
	strb	r3, [sp, #84]
	.loc 1 3243 41
	ldr	r3, .L520+8
	ldr	r3, [r3, #1156]
	.loc 1 3243 16
	ldrb	r3, [r3]	@ zero_extendqisi2
	add	r2, sp, #84
	mov	r1, r2
	mov	r0, r3
	bl	RegionGetPhyParam
	mov	r3, r0
	str	r3, [sp, #80]
	.loc 1 3244 66
	ldr	r2, [sp, #80]
	.loc 1 3244 11
	ldr	r3, .L520+8
	ldr	r3, [r3, #1156]
	.loc 1 3244 56
	uxtb	r2, r2
	strb	r2, [r3, #57]
	.loc 1 3246 22
	movs	r3, #32
	strb	r3, [sp, #84]
	.loc 1 3247 41
	ldr	r3, .L520+8
	ldr	r3, [r3, #1156]
	.loc 1 3247 16
	ldrb	r3, [r3]	@ zero_extendqisi2
	add	r2, sp, #84
	mov	r1, r2
	mov	r0, r3
	bl	RegionGetPhyParam
	mov	r3, r0
	str	r3, [sp, #80]
	.loc 1 3248 11
	ldr	r3, .L520+8
	ldr	r3, [r3, #1156]
	.loc 1 3248 56
	ldr	r2, [sp, #80]	@ float
	.loc 1 3248 46
	str	r2, [r3, #60]	@ float
	.loc 1 3250 22
	movs	r3, #33
	strb	r3, [sp, #84]
	.loc 1 3251 41
	ldr	r3, .L520+8
	ldr	r3, [r3, #1156]
	.loc 1 3251 16
	ldrb	r3, [r3]	@ zero_extendqisi2
	add	r2, sp, #84
	mov	r1, r2
	mov	r0, r3
	bl	RegionGetPhyParam
	mov	r3, r0
	str	r3, [sp, #80]
	.loc 1 3252 11
	ldr	r3, .L520+8
	ldr	r3, [r3, #1156]
	.loc 1 3252 60
	ldr	r2, [sp, #80]	@ float
	.loc 1 3252 50
	str	r2, [r3, #64]	@ float
	.loc 1 3254 22
	movs	r3, #11
	strb	r3, [sp, #84]
	b	.L521
.L522:
	.align	2
.L520:
	.word	EventConfirmQueueNvmCtxChanged
	.word	NvmMacCtx
	.word	MacCtx
.L521:
	.loc 1 3255 41
	ldr	r3, .L523
	ldr	r3, [r3, #1156]
	.loc 1 3255 16
	ldrb	r3, [r3]	@ zero_extendqisi2
	add	r2, sp, #84
	mov	r1, r2
	mov	r0, r3
	bl	RegionGetPhyParam
	mov	r3, r0
	str	r3, [sp, #80]
	.loc 1 3256 34
	ldr	r3, [sp, #80]
	.loc 1 3256 24
	uxth	r2, r3
	ldr	r3, .L523
	strh	r2, [r3, #1012]	@ movhi
	.loc 1 3258 22
	movs	r3, #12
	strb	r3, [sp, #84]
	.loc 1 3259 41
	ldr	r3, .L523
	ldr	r3, [r3, #1156]
	.loc 1 3259 16
	ldrb	r3, [r3]	@ zero_extendqisi2
	add	r2, sp, #84
	mov	r1, r2
	mov	r0, r3
	bl	RegionGetPhyParam
	mov	r3, r0
	str	r3, [sp, #80]
	.loc 1 3260 34
	ldr	r3, [sp, #80]
	.loc 1 3260 24
	uxth	r2, r3
	ldr	r3, .L523
	strh	r2, [r3, #1014]	@ movhi
	.loc 1 3263 11
	ldr	r3, .L523
	ldr	r3, [r3, #1156]
	.loc 1 3263 54
	movs	r2, #1
	strb	r2, [r3, #36]
	.loc 1 3264 11
	ldr	r3, .L523
	ldr	r3, [r3, #1156]
	.loc 1 3264 55
	movs	r2, #10
	str	r2, [r3, #8]
	.loc 1 3265 11
	ldr	r3, .L523
	ldr	r3, [r3, #1156]
	.loc 1 3265 51
	movs	r2, #6
	strb	r2, [r3, #12]
	.loc 1 3267 55
	ldr	r3, .L523
	ldr	r2, [r3, #1156]
	.loc 1 3267 11
	ldr	r3, .L523
	ldr	r3, [r3, #1156]
	.loc 1 3267 81
	ldr	r2, [r2, #8]
	.loc 1 3267 47
	str	r2, [r3, #252]
	.loc 1 3268 51
	ldr	r3, .L523
	ldr	r2, [r3, #1156]
	.loc 1 3268 11
	ldr	r3, .L523
	ldr	r3, [r3, #1156]
	.loc 1 3268 77
	ldrb	r2, [r2, #12]	@ zero_extendqisi2
	.loc 1 3268 43
	strb	r2, [r3, #256]
	.loc 1 3269 50
	ldr	r3, .L523
	ldr	r2, [r3, #1156]
	.loc 1 3269 11
	ldr	r3, .L523
	ldr	r3, [r3, #1156]
	.loc 1 3269 76
	ldr	r2, [r2, #16]
	.loc 1 3269 42
	str	r2, [r3, #260]
	.loc 1 3270 52
	ldr	r3, .L523
	ldr	r2, [r3, #1156]
	.loc 1 3270 11
	ldr	r3, .L523
	ldr	r3, [r3, #1156]
	.loc 1 3270 78
	ldr	r2, [r2, #20]
	.loc 1 3270 44
	str	r2, [r3, #264]
	.loc 1 3271 52
	ldr	r3, .L523
	ldr	r2, [r3, #1156]
	.loc 1 3271 11
	ldr	r3, .L523
	ldr	r3, [r3, #1156]
	.loc 1 3271 78
	ldr	r2, [r2, #24]
	.loc 1 3271 44
	str	r2, [r3, #268]
	.loc 1 3272 55
	ldr	r3, .L523
	ldr	r2, [r3, #1156]
	.loc 1 3272 11
	ldr	r3, .L523
	ldr	r3, [r3, #1156]
	.loc 1 3272 81
	ldr	r2, [r2, #28]
	.loc 1 3272 47
	str	r2, [r3, #272]
	.loc 1 3273 55
	ldr	r3, .L523
	ldr	r2, [r3, #1156]
	.loc 1 3273 11
	ldr	r3, .L523
	ldr	r3, [r3, #1156]
	.loc 1 3273 81
	ldr	r2, [r2, #32]
	.loc 1 3273 47
	str	r2, [r3, #276]
	.loc 1 3274 54
	ldr	r3, .L523
	ldr	r2, [r3, #1156]
	.loc 1 3274 11
	ldr	r3, .L523
	ldr	r3, [r3, #1156]
	.loc 1 3274 80
	ldrb	r2, [r2, #36]	@ zero_extendqisi2
	.loc 1 3274 46
	strb	r2, [r3, #280]
	.loc 1 3276 5
	bl	ResetMacParameters
	.loc 1 3278 11
	ldr	r3, .L523
	ldr	r3, [r3, #1156]
	.loc 1 3278 34
	movs	r2, #1
	strb	r2, [r3, #241]
	.loc 1 3280 26
	ldr	r2, .L523
	ldr	r3, [sp, #20]
	str	r3, [r2, #836]
	.loc 1 3281 25
	ldr	r2, .L523
	ldr	r3, [sp, #16]
	str	r3, [r2, #840]
	.loc 1 3282 27
	ldr	r3, .L523
	movs	r2, #0
	strb	r2, [r3, #1153]
	.loc 1 3283 21
	ldr	r3, .L523
	movs	r2, #1
	str	r2, [r3, #832]
	.loc 1 3286 11
	ldr	r3, .L523
	ldr	r3, [r3, #1156]
	.loc 1 3286 35
	movs	r2, #0
	str	r2, [r3, #452]
	.loc 1 3287 11
	ldr	r3, .L523
	ldr	r3, [r3, #1156]
	.loc 1 3287 38
	movs	r2, #0
	str	r2, [r3, #456]
	.loc 1 3290 5
	ldr	r1, .L523+4
	ldr	r0, .L523+8
	bl	TimerInit
	.loc 1 3291 5
	ldr	r1, .L523+12
	ldr	r0, .L523+16
	bl	TimerInit
	.loc 1 3292 5
	ldr	r1, .L523+20
	ldr	r0, .L523+24
	bl	TimerInit
	.loc 1 3293 5
	ldr	r1, .L523+28
	ldr	r0, .L523+32
	bl	TimerInit
	.loc 1 3296 11
	ldr	r3, .L523
	ldr	r4, [r3, #1156]
	.loc 1 3296 41
	mov	r3, sp
	mov	r0, r3
	bl	SysTimeGetMcuTime
	add	r3, r4, #460
	mov	r2, sp
	ldm	r2, {r0, r1}
	stm	r3, {r0, r1}
	.loc 1 3299 31
	ldr	r3, .L523
	ldr	r2, .L523+36
	str	r2, [r3, #844]
	.loc 1 3300 31
	ldr	r3, .L523
	ldr	r2, .L523+40
	str	r2, [r3, #852]
	.loc 1 3301 32
	ldr	r3, .L523
	ldr	r2, .L523+44
	str	r2, [r3, #860]
	.loc 1 3302 34
	ldr	r3, .L523
	ldr	r2, .L523+48
	str	r2, [r3, #848]
	.loc 1 3303 34
	ldr	r3, .L523
	ldr	r2, .L523+52
	str	r2, [r3, #856]
	.loc 1 3304 10
	ldr	r3, .L523+56
	ldr	r3, [r3]
	.loc 1 3304 5
	ldr	r0, .L523+60
	blx	r3
.LVL23:
	.loc 1 3307 17
	movs	r3, #0
	strb	r3, [sp, #32]
	.loc 1 3308 19
	movs	r3, #0
	str	r3, [sp, #28]
	.loc 1 3309 31
	ldr	r3, .L523
	ldr	r3, [r3, #1156]
	.loc 1 3309 5
	ldrb	r3, [r3]	@ zero_extendqisi2
	add	r2, sp, #28
	mov	r1, r2
	mov	r0, r3
	bl	RegionInitDefaults
	.loc 1 3312 9
	ldr	r0, .L523+64
	bl	SecureElementInit
	mov	r3, r0
	.loc 1 3312 7
	cmp	r3, #0
	beq	.L514
	.loc 1 3314 16
	movs	r3, #17
	b	.L519
.L514:
	.loc 1 3318 9
	ldr	r0, .L523+68
	bl	LoRaMacCryptoInit
	mov	r3, r0
	.loc 1 3318 7
	cmp	r3, #0
	beq	.L515
	.loc 1 3320 16
	movs	r3, #17
	b	.L519
.L515:
	.loc 1 3324 9
	ldr	r0, .L523+72
	bl	LoRaMacCommandsInit
	mov	r3, r0
	.loc 1 3324 7
	cmp	r3, #0
	beq	.L516
	.loc 1 3326 16
	movs	r3, #19
	b	.L519
.L516:
	.loc 1 3330 51
	ldr	r3, .L523
	ldr	r3, [r3, #1156]
	.loc 1 3330 58
	adds	r3, r3, #80
	.loc 1 3330 9
	mov	r0, r3
	bl	LoRaMacCryptoSetMulticastReference
	mov	r3, r0
	.loc 1 3330 7
	cmp	r3, #0
	beq	.L517
	.loc 1 3332 16
	movs	r3, #17
	b	.L519
.L517:
	.loc 1 3336 18
	ldr	r3, .L523+56
	ldr	r3, [r3, #20]
	.loc 1 3336 5
	blx	r3
.LVL24:
	mov	r3, r0
	mov	r0, r3
	bl	srand1
	.loc 1 3338 10
	ldr	r3, .L523+56
	ldr	r3, [r3, #88]
	.loc 1 3338 35
	ldr	r2, .L523
	ldr	r2, [r2, #1156]
	.loc 1 3338 5
	ldrb	r2, [r2, #241]	@ zero_extendqisi2
	mov	r0, r2
	blx	r3
.LVL25:
	.loc 1 3339 10
	ldr	r3, .L523+56
	ldr	r3, [r3, #44]
	.loc 1 3339 5
	blx	r3
.LVL26:
	.loc 1 3343 41
	movs	r3, #0
	str	r3, [sp, #72]
	.loc 1 3344 38
	movs	r3, #0
	str	r3, [sp, #76]
	.loc 1 3345 7
	ldr	r3, [sp, #16]
	cmp	r3, #0
	beq	.L518
	.loc 1 3347 56
	ldr	r3, [sp, #16]
	ldr	r3, [r3, #4]
	.loc 1 3347 45
	str	r3, [sp, #72]
	.loc 1 3348 53
	ldr	r3, [sp, #16]
	ldr	r3, [r3, #12]
	.loc 1 3348 42
	str	r3, [sp, #76]
.L518:
	.loc 1 3352 33
	ldr	r3, .L523+76
	str	r3, [sp, #40]
	.loc 1 3353 33
	ldr	r3, .L523+80
	str	r3, [sp, #44]
	.loc 1 3354 30
	ldr	r3, .L523+84
	str	r3, [sp, #48]
	.loc 1 3355 31
	ldr	r3, .L523+88
	str	r3, [sp, #52]
	.loc 1 3356 42
	ldr	r3, .L523
	ldr	r3, [r3, #1156]
	.loc 1 3356 35
	adds	r3, r3, #76
	.loc 1 3356 33
	str	r3, [sp, #56]
	.loc 1 3357 41
	ldr	r3, .L523
	ldr	r3, [r3, #1156]
	.loc 1 3357 32
	str	r3, [sp, #60]
	.loc 1 3358 41
	ldr	r3, .L523
	ldr	r3, [r3, #1156]
	.loc 1 3358 34
	adds	r3, r3, #248
	.loc 1 3358 32
	str	r3, [sp, #64]
	.loc 1 3359 45
	ldr	r3, .L523
	ldr	r3, [r3, #1156]
	.loc 1 3359 38
	adds	r3, r3, #80
	.loc 1 3359 36
	str	r3, [sp, #68]
	.loc 1 3361 5
	add	r1, sp, #72
	add	r3, sp, #40
	ldr	r2, .L523+92
	mov	r0, r3
	bl	LoRaMacClassBInit
	.loc 1 3363 5
	movs	r0, #1
	bl	LoRaMacEnableRequests
	.loc 1 3365 12
	movs	r3, #0
.L519:
	.loc 1 3366 1 discriminator 1
	mov	r0, r3
	add	sp, sp, #88
.LCFI137:
	@ sp needed
	pop	{r4, pc}
.L524:
	.align	2
.L523:
	.word	MacCtx
	.word	OnTxDelayedTimerEvent
	.word	MacCtx+872
	.word	OnRxWindow1TimerEvent
	.word	MacCtx+896
	.word	OnRxWindow2TimerEvent
	.word	MacCtx+920
	.word	OnAckTimeoutTimerEvent
	.word	MacCtx+1016
	.word	OnRadioTxDone
	.word	OnRadioRxDone
	.word	OnRadioRxError
	.word	OnRadioTxTimeout
	.word	OnRadioRxTimeout
	.word	Radio
	.word	MacCtx+844
	.word	EventSecureElementNvmCtxChanged
	.word	EventCryptoNvmCtxChanged
	.word	EventCommandsNvmCtxChanged
	.word	MacCtx+1124
	.word	MacCtx+1052
	.word	MacCtx+1104
	.word	MacCtx+1153
	.word	EventClassBNvmCtxChanged
.LFE65:
	.size	LoRaMacInitialization, .-LoRaMacInitialization
	.section	.text.LoRaMacStart,"ax",%progbits
	.align	1
	.global	LoRaMacStart
	.syntax unified
	.thumb
	.thumb_func
	.fpu fpv4-sp-d16
	.type	LoRaMacStart, %function
LoRaMacStart:
.LFB66:
	.loc 1 3369 1
	@ args = 0, pretend = 0, frame = 0
	@ frame_needed = 0, uses_anonymous_args = 0
	@ link register save eliminated.
	.loc 1 3370 21
	ldr	r3, .L527
	movs	r2, #0
	str	r2, [r3, #832]
	.loc 1 3371 12
	movs	r3, #0
	.loc 1 3372 1
	mov	r0, r3
	bx	lr
.L528:
	.align	2
.L527:
	.word	MacCtx
.LFE66:
	.size	LoRaMacStart, .-LoRaMacStart
	.section	.text.LoRaMacStop,"ax",%progbits
	.align	1
	.global	LoRaMacStop
	.syntax unified
	.thumb
	.thumb_func
	.fpu fpv4-sp-d16
	.type	LoRaMacStop, %function
LoRaMacStop:
.LFB67:
	.loc 1 3375 1
	@ args = 0, pretend = 0, frame = 0
	@ frame_needed = 0, uses_anonymous_args = 0
	push	{r3, lr}
.LCFI138:
	.loc 1 3376 9
	bl	LoRaMacIsBusy
	mov	r3, r0
	.loc 1 3376 26
	eor	r3, r3, #1
	uxtb	r3, r3
	.loc 1 3376 7
	cmp	r3, #0
	beq	.L530
	.loc 1 3378 25
	ldr	r3, .L533
	movs	r2, #1
	str	r2, [r3, #832]
	.loc 1 3379 16
	movs	r3, #0
	b	.L531
.L530:
	.loc 1 3381 21
	ldr	r3, .L533
	ldr	r3, [r3, #832]
	.loc 1 3381 12
	cmp	r3, #1
	bne	.L532
	.loc 1 3383 16
	movs	r3, #0
	b	.L531
.L532:
	.loc 1 3385 12
	movs	r3, #1
.L531:
	.loc 1 3386 1
	mov	r0, r3
	pop	{r3, pc}
.L534:
	.align	2
.L533:
	.word	MacCtx
.LFE67:
	.size	LoRaMacStop, .-LoRaMacStop
	.section	.text.LoRaMacQueryTxPossible,"ax",%progbits
	.align	1
	.global	LoRaMacQueryTxPossible
	.syntax unified
	.thumb
	.thumb_func
	.fpu fpv4-sp-d16
	.type	LoRaMacQueryTxPossible, %function
LoRaMacQueryTxPossible:
.LFB68:
	.loc 1 3389 1
	@ args = 0, pretend = 0, frame = 40
	@ frame_needed = 0, uses_anonymous_args = 0
	push	{lr}
.LCFI139:
	sub	sp, sp, #44
.LCFI140:
	mov	r3, r0
	str	r1, [sp]
	strb	r3, [sp, #7]
	.loc 1 3391 36
	ldr	r3, .L542
	ldr	r3, [r3, #1156]
	.loc 1 3391 43
	ldr	r3, [r3, #244]
	.loc 1 3391 14
	str	r3, [sp, #16]
	.loc 1 3392 29
	ldr	r3, .L542
	ldr	r3, [r3, #1156]
	.loc 1 3392 55
	ldrsb	r3, [r3, #5]
	.loc 1 3392 12
	strb	r3, [sp, #15]
	.loc 1 3393 28
	ldr	r3, .L542
	ldr	r3, [r3, #1156]
	.loc 1 3393 54
	ldrsb	r3, [r3, #4]
	.loc 1 3393 12
	strb	r3, [sp, #14]
	.loc 1 3394 12
	movs	r3, #0
	str	r3, [sp, #8]
	.loc 1 3396 7
	ldr	r3, [sp]
	cmp	r3, #0
	bne	.L536
	.loc 1 3398 16
	movs	r3, #3
	b	.L541
.L536:
	.loc 1 3402 29
	ldr	r3, .L542
	ldr	r3, [r3, #1156]
	.loc 1 3402 21
	ldr	r3, [r3, #468]
	str	r3, [sp, #20]
	.loc 1 3403 28
	movs	r3, #0
	strb	r3, [sp, #24]
	.loc 1 3404 32
	ldr	r3, .L542
	ldr	r3, [r3, #1156]
	.loc 1 3404 39
	ldrb	r3, [r3, #242]	@ zero_extendqisi2
	.loc 1 3404 24
	strb	r3, [sp, #25]
	.loc 1 3405 35
	ldr	r3, .L542
	ldr	r3, [r3, #1156]
	.loc 1 3405 42
	ldr	r3, [r3, #244]
	.loc 1 3405 27
	str	r3, [sp, #28]
	.loc 1 3406 33
	ldr	r3, .L542
	ldrh	r3, [r3, #1012]
	.loc 1 3406 25
	strh	r3, [sp, #32]	@ movhi
	.loc 1 3407 33
	ldr	r3, .L542
	ldrh	r3, [r3, #1014]
	.loc 1 3407 25
	strh	r3, [sp, #34]	@ movhi
	.loc 1 3408 30
	ldr	r3, .L542
	ldr	r3, [r3, #1156]
	.loc 1 3408 48
	ldrsb	r3, [r3, #249]
	.loc 1 3408 22
	strb	r3, [sp, #36]
	.loc 1 3409 29
	ldr	r3, .L542
	ldr	r3, [r3, #1156]
	.loc 1 3409 47
	ldrsb	r3, [r3, #248]
	.loc 1 3409 21
	strb	r3, [sp, #37]
	.loc 1 3410 37
	ldr	r3, .L542
	ldr	r3, [r3, #1156]
	.loc 1 3410 55
	ldrb	r3, [r3, #300]	@ zero_extendqisi2
	.loc 1 3410 29
	strb	r3, [sp, #38]
	.loc 1 3411 28
	ldr	r3, .L542
	ldr	r3, [r3, #1156]
	.loc 1 3411 35
	ldrb	r3, [r3]	@ zero_extendqisi2
	.loc 1 3411 20
	strb	r3, [sp, #39]
	.loc 1 3415 5
	add	r3, sp, #16
	add	r2, sp, #14
	add	r1, sp, #15
	add	r0, sp, #20
	bl	LoRaMacAdrCalcNext
	.loc 1 3417 42
	ldrsb	r3, [sp, #15]
	mov	r0, r3
	bl	GetMaxAppPayloadWithoutFOptsLength
	mov	r3, r0
	mov	r2, r3
	.loc 1 3417 40
	ldr	r3, [sp]
	strb	r2, [r3, #1]
	.loc 1 3419 9
	add	r3, sp, #8
	mov	r0, r3
	bl	LoRaMacCommandsGetSizeSerializedCmds
	mov	r3, r0
	.loc 1 3419 7
	cmp	r3, #0
	beq	.L538
	.loc 1 3421 16
	movs	r3, #19
	b	.L541
.L538:
	.loc 1 3425 45
	ldr	r3, [sp, #8]
	.loc 1 3425 7
	cmp	r3, #15
	bhi	.L539
	.loc 1 3425 73 discriminator 1
	ldr	r3, [sp]
	ldrb	r3, [r3, #1]	@ zero_extendqisi2
	mov	r2, r3
	.loc 1 3425 102 discriminator 1
	ldr	r3, [sp, #8]
	.loc 1 3425 62 discriminator 1
	cmp	r2, r3
	bcc	.L539
	.loc 1 3427 56
	ldr	r3, [sp]
	ldrb	r2, [r3, #1]	@ zero_extendqisi2
	.loc 1 3427 85
	ldr	r3, [sp, #8]
	uxtb	r3, r3
	subs	r3, r2, r3
	uxtb	r2, r3
	.loc 1 3427 48
	ldr	r3, [sp]
	strb	r2, [r3]
	.loc 1 3430 19
	ldr	r3, [sp]
	ldrb	r3, [r3, #1]	@ zero_extendqisi2
	mov	r1, r3
	.loc 1 3430 65
	ldrb	r2, [sp, #7]	@ zero_extendqisi2
	ldr	r3, [sp, #8]
	add	r3, r3, r2
	.loc 1 3430 11
	cmp	r1, r3
	bcc	.L540
	.loc 1 3432 20
	movs	r3, #0
	b	.L541
.L540:
	.loc 1 3436 19
	movs	r3, #8
	b	.L541
.L539:
	.loc 1 3441 48
	ldr	r3, [sp]
	movs	r2, #0
	strb	r2, [r3]
	.loc 1 3442 16
	movs	r3, #8
.L541:
	.loc 1 3444 1 discriminator 1
	mov	r0, r3
	add	sp, sp, #44
.LCFI141:
	@ sp needed
	ldr	pc, [sp], #4
.L543:
	.align	2
.L542:
	.word	MacCtx
.LFE68:
	.size	LoRaMacQueryTxPossible, .-LoRaMacQueryTxPossible
	.section	.text.LoRaMacMibGetRequestConfirm,"ax",%progbits
	.align	1
	.global	LoRaMacMibGetRequestConfirm
	.syntax unified
	.thumb
	.thumb_func
	.fpu fpv4-sp-d16
	.type	LoRaMacMibGetRequestConfirm, %function
LoRaMacMibGetRequestConfirm:
.LFB69:
	.loc 1 3447 1
	@ args = 0, pretend = 0, frame = 24
	@ frame_needed = 0, uses_anonymous_args = 0
	push	{lr}
.LCFI142:
	sub	sp, sp, #28
.LCFI143:
	str	r0, [sp, #4]
	.loc 1 3448 21
	movs	r3, #0
	strb	r3, [sp, #23]
	.loc 1 3452 7
	ldr	r3, [sp, #4]
	cmp	r3, #0
	bne	.L545
	.loc 1 3454 16
	movs	r3, #3
	b	.L581
.L545:
	.loc 1 3457 19
	ldr	r3, [sp, #4]
	ldrb	r3, [r3]	@ zero_extendqisi2
	cmp	r3, #52
	bhi	.L547
	adr	r2, .L549
	ldr	pc, [r2, r3, lsl #2]
	.p2align 2
.L549:
	.word	.L579+1
	.word	.L578+1
	.word	.L577+1
	.word	.L576+1
	.word	.L575+1
	.word	.L574+1
	.word	.L573+1
	.word	.L547+1
	.word	.L547+1
	.word	.L547+1
	.word	.L547+1
	.word	.L547+1
	.word	.L547+1
	.word	.L547+1
	.word	.L547+1
	.word	.L547+1
	.word	.L547+1
	.word	.L547+1
	.word	.L547+1
	.word	.L547+1
	.word	.L547+1
	.word	.L547+1
	.word	.L547+1
	.word	.L547+1
	.word	.L547+1
	.word	.L547+1
	.word	.L547+1
	.word	.L547+1
	.word	.L547+1
	.word	.L572+1
	.word	.L571+1
	.word	.L570+1
	.word	.L569+1
	.word	.L568+1
	.word	.L567+1
	.word	.L566+1
	.word	.L565+1
	.word	.L564+1
	.word	.L563+1
	.word	.L562+1
	.word	.L561+1
	.word	.L560+1
	.word	.L559+1
	.word	.L558+1
	.word	.L557+1
	.word	.L556+1
	.word	.L555+1
	.word	.L554+1
	.word	.L553+1
	.word	.L552+1
	.word	.L551+1
	.word	.L550+1
	.word	.L548+1
	.p2align 1
.L579:
	.loc 1 3461 41
	ldr	r3, .L582
	ldr	r3, [r3, #1156]
	.loc 1 3461 48
	ldrb	r2, [r3, #240]	@ zero_extendqisi2
	.loc 1 3461 33
	ldr	r3, [sp, #4]
	strb	r2, [r3, #4]
	.loc 1 3462 13
	b	.L580
.L578:
	.loc 1 3466 53
	ldr	r3, .L582
	ldr	r3, [r3, #1156]
	.loc 1 3466 60
	ldrb	r2, [r3, #472]	@ zero_extendqisi2
	.loc 1 3466 45
	ldr	r3, [sp, #4]
	strb	r2, [r3, #4]
	.loc 1 3467 13
	b	.L580
.L577:
	.loc 1 3471 36
	bl	SecureElementGetDevEui
	mov	r2, r0
	.loc 1 3471 34
	ldr	r3, [sp, #4]
	str	r2, [r3, #4]
	.loc 1 3472 13
	b	.L580
.L576:
	.loc 1 3476 37
	bl	SecureElementGetJoinEui
	mov	r2, r0
	.loc 1 3476 35
	ldr	r3, [sp, #4]
	str	r2, [r3, #4]
	.loc 1 3477 13
	b	.L580
.L575:
	.loc 1 3481 45
	ldr	r3, .L582
	ldr	r3, [r3, #1156]
	.loc 1 3481 52
	ldrb	r2, [r3, #242]	@ zero_extendqisi2
	.loc 1 3481 37
	ldr	r3, [sp, #4]
	strb	r2, [r3, #4]
	.loc 1 3482 13
	b	.L580
.L574:
	.loc 1 3486 41
	ldr	r3, .L582
	ldr	r3, [r3, #1156]
	.loc 1 3486 48
	ldr	r2, [r3, #72]
	.loc 1 3486 33
	ldr	r3, [sp, #4]
	str	r2, [r3, #4]
	.loc 1 3487 13
	b	.L580
.L573:
	.loc 1 3491 43
	ldr	r3, .L582
	ldr	r3, [r3, #1156]
	.loc 1 3491 50
	ldr	r2, [r3, #76]
	.loc 1 3491 35
	ldr	r3, [sp, #4]
	str	r2, [r3, #4]
	.loc 1 3492 13
	b	.L580
.L572:
	.loc 1 3496 55
	ldr	r3, .L582
	ldr	r3, [r3, #1156]
	.loc 1 3496 62
	ldrb	r2, [r3, #241]	@ zero_extendqisi2
	.loc 1 3496 47
	ldr	r3, [sp, #4]
	strb	r2, [r3, #4]
	.loc 1 3497 13
	b	.L580
.L571:
	.loc 1 3501 57
	ldr	r3, .L582
	ldr	r3, [r3, #1156]
	.loc 1 3501 64
	ldrb	r2, [r3, #319]	@ zero_extendqisi2
	.loc 1 3501 49
	ldr	r3, [sp, #4]
	strb	r2, [r3, #4]
	.loc 1 3502 13
	b	.L580
.L570:
	.loc 1 3506 30
	movs	r3, #29
	strb	r3, [sp, #16]
	.loc 1 3507 49
	ldr	r3, .L582
	ldr	r3, [r3, #1156]
	.loc 1 3507 24
	ldrb	r3, [r3]	@ zero_extendqisi2
	add	r2, sp, #16
	mov	r1, r2
	mov	r0, r3
	bl	RegionGetPhyParam
	mov	r3, r0
	str	r3, [sp, #12]
	.loc 1 3509 49
	ldr	r2, [sp, #12]
	.loc 1 3509 39
	ldr	r3, [sp, #4]
	str	r2, [r3, #4]
	.loc 1 3510 13
	b	.L580
.L569:
	.loc 1 3514 46
	ldr	r3, .L582
	ldr	r2, [r3, #1156]
	.loc 1 3514 38
	ldr	r3, [sp, #4]
	adds	r3, r3, #4
	add	r2, r2, #284
	ldm	r2, {r0, r1}
	stm	r3, {r0, r1}
	.loc 1 3515 13
	b	.L580
.L568:
	.loc 1 3519 46
	ldr	r3, .L582
	ldr	r2, [r3, #1156]
	.loc 1 3519 38
	ldr	r3, [sp, #4]
	adds	r3, r3, #4
	adds	r2, r2, #40
	ldm	r2, {r0, r1}
	stm	r3, {r0, r1}
	.loc 1 3520 13
	b	.L580
.L567:
	.loc 1 3524 46
	ldr	r3, .L582
	ldr	r2, [r3, #1156]
	.loc 1 3524 38
	ldr	r3, [sp, #4]
	adds	r3, r3, #4
	add	r2, r2, #292
	ldm	r2, {r0, r1}
	stm	r3, {r0, r1}
	.loc 1 3525 13
	b	.L580
.L566:
	.loc 1 3529 46
	ldr	r3, .L582
	ldr	r2, [r3, #1156]
	.loc 1 3529 38
	ldr	r3, [sp, #4]
	adds	r3, r3, #4
	adds	r2, r2, #48
	ldm	r2, {r0, r1}
	stm	r3, {r0, r1}
	.loc 1 3530 13
	b	.L580
.L564:
	.loc 1 3534 30
	movs	r3, #27
	strb	r3, [sp, #16]
	.loc 1 3535 49
	ldr	r3, .L582
	ldr	r3, [r3, #1156]
	.loc 1 3535 24
	ldrb	r3, [r3]	@ zero_extendqisi2
	add	r2, sp, #16
	mov	r1, r2
	mov	r0, r3
	bl	RegionGetPhyParam
	mov	r3, r0
	str	r3, [sp, #12]
	.loc 1 3537 57
	ldr	r2, [sp, #12]
	.loc 1 3537 47
	ldr	r3, [sp, #4]
	str	r2, [r3, #4]
	.loc 1 3538 13
	b	.L580
.L565:
	.loc 1 3542 30
	movs	r3, #26
	strb	r3, [sp, #16]
	.loc 1 3543 49
	ldr	r3, .L582
	ldr	r3, [r3, #1156]
	.loc 1 3543 24
	ldrb	r3, [r3]	@ zero_extendqisi2
	add	r2, sp, #16
	mov	r1, r2
	mov	r0, r3
	bl	RegionGetPhyParam
	mov	r3, r0
	str	r3, [sp, #12]
	.loc 1 3545 50
	ldr	r2, [sp, #12]
	.loc 1 3545 40
	ldr	r3, [sp, #4]
	str	r2, [r3, #4]
	.loc 1 3546 13
	b	.L580
.L563:
	.loc 1 3550 51
	ldr	r3, .L582
	ldr	r3, [r3, #1156]
	.loc 1 3550 69
	ldrb	r2, [r3, #280]	@ zero_extendqisi2
	.loc 1 3550 43
	ldr	r3, [sp, #4]
	strb	r2, [r3, #4]
	.loc 1 3551 13
	b	.L580
.L562:
	.loc 1 3555 47
	ldr	r3, .L582
	ldr	r3, [r3, #1156]
	.loc 1 3555 65
	ldr	r2, [r3, #260]
	.loc 1 3555 39
	ldr	r3, [sp, #4]
	str	r2, [r3, #4]
	.loc 1 3556 13
	b	.L580
.L561:
	.loc 1 3560 49
	ldr	r3, .L582
	ldr	r3, [r3, #1156]
	.loc 1 3560 67
	ldr	r2, [r3, #264]
	.loc 1 3560 41
	ldr	r3, [sp, #4]
	str	r2, [r3, #4]
	.loc 1 3561 13
	b	.L580
.L560:
	.loc 1 3565 49
	ldr	r3, .L582
	ldr	r3, [r3, #1156]
	.loc 1 3565 67
	ldr	r2, [r3, #268]
	.loc 1 3565 41
	ldr	r3, [sp, #4]
	str	r2, [r3, #4]
	.loc 1 3566 13
	b	.L580
.L559:
	.loc 1 3570 52
	ldr	r3, .L582
	ldr	r3, [r3, #1156]
	.loc 1 3570 70
	ldr	r2, [r3, #272]
	.loc 1 3570 44
	ldr	r3, [sp, #4]
	str	r2, [r3, #4]
	.loc 1 3571 13
	b	.L580
.L558:
	.loc 1 3575 52
	ldr	r3, .L582
	ldr	r3, [r3, #1156]
	.loc 1 3575 70
	ldr	r2, [r3, #276]
	.loc 1 3575 44
	ldr	r3, [sp, #4]
	str	r2, [r3, #4]
	.loc 1 3576 13
	b	.L580
.L557:
	.loc 1 3580 59
	ldr	r3, .L582
	ldr	r3, [r3, #1156]
	.loc 1 3580 85
	ldrsb	r2, [r3, #5]
	.loc 1 3580 51
	ldr	r3, [sp, #4]
	strb	r2, [r3, #4]
	.loc 1 3581 13
	b	.L580
.L556:
	.loc 1 3585 52
	ldr	r3, .L582
	ldr	r3, [r3, #1156]
	.loc 1 3585 70
	ldrsb	r2, [r3, #249]
	.loc 1 3585 44
	ldr	r3, [sp, #4]
	strb	r2, [r3, #4]
	.loc 1 3586 13
	b	.L580
.L554:
	.loc 1 3590 58
	ldr	r3, .L582
	ldr	r3, [r3, #1156]
	.loc 1 3590 84
	ldrsb	r2, [r3, #4]
	.loc 1 3590 50
	ldr	r3, [sp, #4]
	strb	r2, [r3, #4]
	.loc 1 3591 13
	b	.L580
.L555:
	.loc 1 3595 51
	ldr	r3, .L582
	ldr	r3, [r3, #1156]
	.loc 1 3595 69
	ldrsb	r2, [r3, #248]
	.loc 1 3595 43
	ldr	r3, [sp, #4]
	strb	r2, [r3, #4]
	.loc 1 3596 13
	b	.L580
.L553:
	.loc 1 3600 52
	ldr	r3, .L582
	ldr	r3, [r3, #1156]
	.loc 1 3600 70
	ldr	r2, [r3, #252]
	.loc 1 3600 44
	ldr	r3, [sp, #4]
	str	r2, [r3, #4]
	.loc 1 3601 13
	b	.L580
.L552:
	.loc 1 3605 48
	ldr	r3, .L582
	ldr	r3, [r3, #1156]
	.loc 1 3605 66
	ldrb	r2, [r3, #256]	@ zero_extendqisi2
	.loc 1 3605 40
	ldr	r3, [sp, #4]
	strb	r2, [r3, #4]
	.loc 1 3606 13
	b	.L580
.L551:
	.loc 1 3610 47
	ldr	r3, .L582
	ldr	r3, [r3, #1156]
	.loc 1 3610 65
	ldr	r2, [r3, #308]	@ float
	.loc 1 3610 39
	ldr	r3, [sp, #4]
	str	r2, [r3, #4]	@ float
	.loc 1 3611 13
	b	.L580
.L548:
	.loc 1 3615 38
	bl	GetCtxs
	mov	r2, r0
	.loc 1 3615 36
	ldr	r3, [sp, #4]
	str	r2, [r3, #4]
	.loc 1 3616 13
	b	.L580
.L550:
	.loc 1 3620 54
	ldr	r3, .L582
	ldr	r3, [r3, #1156]
	.loc 1 3620 80
	ldr	r2, [r3, #64]	@ float
	.loc 1 3620 46
	ldr	r3, [sp, #4]
	str	r2, [r3, #4]	@ float
	.loc 1 3621 13
	b	.L580
.L547:
	.loc 1 3625 22
	ldr	r0, [sp, #4]
	bl	LoRaMacClassBMibGetRequestConfirm
	mov	r3, r0
	strb	r3, [sp, #23]
	.loc 1 3626 13
	nop
.L580:
	.loc 1 3629 12
	ldrb	r3, [sp, #23]	@ zero_extendqisi2
.L581:
	.loc 1 3630 1 discriminator 1
	mov	r0, r3
	add	sp, sp, #28
.LCFI144:
	@ sp needed
	ldr	pc, [sp], #4
.L583:
	.align	2
.L582:
	.word	MacCtx
.LFE69:
	.size	LoRaMacMibGetRequestConfirm, .-LoRaMacMibGetRequestConfirm
	.section	.text.LoRaMacMibSetRequestConfirm,"ax",%progbits
	.align	1
	.global	LoRaMacMibSetRequestConfirm
	.syntax unified
	.thumb
	.thumb_func
	.fpu fpv4-sp-d16
	.type	LoRaMacMibSetRequestConfirm, %function
LoRaMacMibSetRequestConfirm:
.LFB70:
	.loc 1 3633 1
	@ args = 0, pretend = 0, frame = 24
	@ frame_needed = 0, uses_anonymous_args = 0
	push	{lr}
.LCFI145:
	sub	sp, sp, #28
.LCFI146:
	str	r0, [sp, #4]
	.loc 1 3634 21
	movs	r3, #0
	strb	r3, [sp, #23]
	.loc 1 3638 7
	ldr	r3, [sp, #4]
	cmp	r3, #0
	bne	.L585
	.loc 1 3640 16
	movs	r3, #3
	b	.L716
.L585:
	.loc 1 3642 17
	ldr	r3, .L745
	ldr	r3, [r3, #832]
	.loc 1 3642 27
	and	r3, r3, #2
	.loc 1 3642 7
	cmp	r3, #0
	beq	.L587
	.loc 1 3644 16
	movs	r3, #1
	b	.L716
.L587:
	.loc 1 3647 19
	ldr	r3, [sp, #4]
	ldrb	r3, [r3]	@ zero_extendqisi2
	cmp	r3, #53
	bhi	.L588
	adr	r2, .L590
	ldr	pc, [r2, r3, lsl #2]
	.p2align 2
.L590:
	.word	.L642+1
	.word	.L641+1
	.word	.L640+1
	.word	.L639+1
	.word	.L638+1
	.word	.L637+1
	.word	.L636+1
	.word	.L635+1
	.word	.L634+1
	.word	.L633+1
	.word	.L632+1
	.word	.L631+1
	.word	.L630+1
	.word	.L629+1
	.word	.L628+1
	.word	.L627+1
	.word	.L626+1
	.word	.L625+1
	.word	.L624+1
	.word	.L623+1
	.word	.L622+1
	.word	.L621+1
	.word	.L620+1
	.word	.L619+1
	.word	.L618+1
	.word	.L617+1
	.word	.L616+1
	.word	.L615+1
	.word	.L614+1
	.word	.L613+1
	.word	.L612+1
	.word	.L588+1
	.word	.L611+1
	.word	.L610+1
	.word	.L609+1
	.word	.L608+1
	.word	.L607+1
	.word	.L606+1
	.word	.L605+1
	.word	.L604+1
	.word	.L603+1
	.word	.L602+1
	.word	.L601+1
	.word	.L600+1
	.word	.L599+1
	.word	.L598+1
	.word	.L597+1
	.word	.L596+1
	.word	.L595+1
	.word	.L594+1
	.word	.L593+1
	.word	.L592+1
	.word	.L591+1
	.word	.L589+1
	.p2align 1
.L642:
	.loc 1 3651 22
	ldr	r3, [sp, #4]
	ldrb	r3, [r3, #4]	@ zero_extendqisi2
	mov	r0, r3
	bl	SwitchClass
	mov	r3, r0
	strb	r3, [sp, #23]
	.loc 1 3652 13
	b	.L643
.L641:
	.loc 1 3656 30
	ldr	r3, [sp, #4]
	ldrb	r3, [r3, #4]	@ zero_extendqisi2
	.loc 1 3656 15
	cmp	r3, #2
	beq	.L644
	.loc 1 3658 23
	ldr	r3, .L745
	ldr	r3, [r3, #1156]
	.loc 1 3658 65
	ldr	r2, [sp, #4]
	ldrb	r2, [r2, #4]	@ zero_extendqisi2
	.loc 1 3658 50
	strb	r2, [r3, #472]
	.loc 1 3664 13
	b	.L643
.L644:
	.loc 1 3662 24
	movs	r3, #3
	strb	r3, [sp, #23]
	.loc 1 3664 13
	b	.L643
.L640:
	.loc 1 3668 17
	ldr	r3, [sp, #4]
	ldr	r3, [r3, #4]
	mov	r0, r3
	bl	SecureElementSetDevEui
	mov	r3, r0
	.loc 1 3668 15
	cmp	r3, #0
	beq	.L717
	.loc 1 3670 24
	movs	r3, #3
	strb	r3, [sp, #23]
	.loc 1 3672 13
	b	.L717
.L639:
	.loc 1 3676 17
	ldr	r3, [sp, #4]
	ldr	r3, [r3, #4]
	mov	r0, r3
	bl	SecureElementSetJoinEui
	mov	r3, r0
	.loc 1 3676 15
	cmp	r3, #0
	beq	.L718
	.loc 1 3678 24
	movs	r3, #3
	strb	r3, [sp, #23]
	.loc 1 3680 13
	b	.L718
.L638:
	.loc 1 3684 19
	ldr	r3, .L745
	ldr	r3, [r3, #1156]
	.loc 1 3684 53
	ldr	r2, [sp, #4]
	ldrb	r2, [r2, #4]	@ zero_extendqisi2
	.loc 1 3684 38
	strb	r2, [r3, #242]
	.loc 1 3685 13
	b	.L643
.L637:
	.loc 1 3689 19
	ldr	r3, .L745
	ldr	r3, [r3, #1156]
	.loc 1 3689 49
	ldr	r2, [sp, #4]
	ldr	r2, [r2, #4]
	.loc 1 3689 34
	str	r2, [r3, #72]
	.loc 1 3690 13
	b	.L643
.L636:
	.loc 1 3694 19
	ldr	r3, .L745
	ldr	r3, [r3, #1156]
	.loc 1 3694 51
	ldr	r2, [sp, #4]
	ldr	r2, [r2, #4]
	.loc 1 3694 36
	str	r2, [r3, #76]
	.loc 1 3695 13
	b	.L643
.L635:
	.loc 1 3699 30
	ldr	r3, [sp, #4]
	ldr	r3, [r3, #4]
	.loc 1 3699 15
	cmp	r3, #0
	beq	.L648
	.loc 1 3701 47
	ldr	r3, [sp, #4]
	ldr	r3, [r3, #4]
	mov	r1, r3
	movs	r0, #1
	bl	LoRaMacCryptoSetKey
	mov	r3, r0
	.loc 1 3701 19
	cmp	r3, #0
	beq	.L719
	.loc 1 3703 28
	movs	r3, #17
	b	.L716
.L648:
	.loc 1 3708 24
	movs	r3, #3
	strb	r3, [sp, #23]
	.loc 1 3710 13
	b	.L719
.L634:
	.loc 1 3714 30
	ldr	r3, [sp, #4]
	ldr	r3, [r3, #4]
	.loc 1 3714 15
	cmp	r3, #0
	beq	.L650
	.loc 1 3716 47
	ldr	r3, [sp, #4]
	ldr	r3, [r3, #4]
	mov	r1, r3
	movs	r0, #0
	bl	LoRaMacCryptoSetKey
	mov	r3, r0
	.loc 1 3716 19
	cmp	r3, #0
	beq	.L720
	.loc 1 3718 28
	movs	r3, #17
	b	.L716
.L650:
	.loc 1 3723 24
	movs	r3, #3
	strb	r3, [sp, #23]
	.loc 1 3725 13
	b	.L720
.L633:
	.loc 1 3729 30
	ldr	r3, [sp, #4]
	ldr	r3, [r3, #4]
	.loc 1 3729 15
	cmp	r3, #0
	beq	.L652
	.loc 1 3731 47
	ldr	r3, [sp, #4]
	ldr	r3, [r3, #4]
	mov	r1, r3
	movs	r0, #2
	bl	LoRaMacCryptoSetKey
	mov	r3, r0
	.loc 1 3731 19
	cmp	r3, #0
	beq	.L721
	.loc 1 3733 28
	movs	r3, #17
	b	.L716
.L652:
	.loc 1 3738 24
	movs	r3, #3
	strb	r3, [sp, #23]
	.loc 1 3740 13
	b	.L721
.L632:
	.loc 1 3744 30
	ldr	r3, [sp, #4]
	ldr	r3, [r3, #4]
	.loc 1 3744 15
	cmp	r3, #0
	beq	.L654
	.loc 1 3746 47
	ldr	r3, [sp, #4]
	ldr	r3, [r3, #4]
	mov	r1, r3
	movs	r0, #3
	bl	LoRaMacCryptoSetKey
	mov	r3, r0
	.loc 1 3746 19
	cmp	r3, #0
	beq	.L722
	.loc 1 3748 28
	movs	r3, #17
	b	.L716
.L654:
	.loc 1 3753 24
	movs	r3, #3
	strb	r3, [sp, #23]
	.loc 1 3755 13
	b	.L722
.L631:
	.loc 1 3759 30
	ldr	r3, [sp, #4]
	ldr	r3, [r3, #4]
	.loc 1 3759 15
	cmp	r3, #0
	beq	.L656
	.loc 1 3761 47
	ldr	r3, [sp, #4]
	ldr	r3, [r3, #4]
	mov	r1, r3
	movs	r0, #4
	bl	LoRaMacCryptoSetKey
	mov	r3, r0
	.loc 1 3761 19
	cmp	r3, #0
	beq	.L723
	.loc 1 3763 28
	movs	r3, #17
	b	.L716
.L656:
	.loc 1 3768 24
	movs	r3, #3
	strb	r3, [sp, #23]
	.loc 1 3770 13
	b	.L723
.L630:
	.loc 1 3774 30
	ldr	r3, [sp, #4]
	ldr	r3, [r3, #4]
	.loc 1 3774 15
	cmp	r3, #0
	beq	.L658
	.loc 1 3776 47
	ldr	r3, [sp, #4]
	ldr	r3, [r3, #4]
	mov	r1, r3
	movs	r0, #5
	bl	LoRaMacCryptoSetKey
	mov	r3, r0
	.loc 1 3776 19
	cmp	r3, #0
	beq	.L724
	.loc 1 3778 28
	movs	r3, #17
	b	.L716
.L658:
	.loc 1 3783 24
	movs	r3, #3
	strb	r3, [sp, #23]
	.loc 1 3785 13
	b	.L724
.L629:
	.loc 1 3789 30
	ldr	r3, [sp, #4]
	ldr	r3, [r3, #4]
	.loc 1 3789 15
	cmp	r3, #0
	beq	.L660
	.loc 1 3791 47
	ldr	r3, [sp, #4]
	ldr	r3, [r3, #4]
	mov	r1, r3
	movs	r0, #6
	bl	LoRaMacCryptoSetKey
	mov	r3, r0
	.loc 1 3791 19
	cmp	r3, #0
	beq	.L725
	.loc 1 3793 28
	movs	r3, #17
	b	.L716
.L660:
	.loc 1 3798 24
	movs	r3, #3
	strb	r3, [sp, #23]
	.loc 1 3800 13
	b	.L725
.L628:
	.loc 1 3804 30
	ldr	r3, [sp, #4]
	ldr	r3, [r3, #4]
	.loc 1 3804 15
	cmp	r3, #0
	beq	.L662
	.loc 1 3806 47
	ldr	r3, [sp, #4]
	ldr	r3, [r3, #4]
	mov	r1, r3
	movs	r0, #7
	bl	LoRaMacCryptoSetKey
	mov	r3, r0
	.loc 1 3806 19
	cmp	r3, #0
	beq	.L726
	.loc 1 3808 28
	movs	r3, #17
	b	.L716
.L662:
	.loc 1 3813 24
	movs	r3, #3
	strb	r3, [sp, #23]
	.loc 1 3815 13
	b	.L726
.L627:
	.loc 1 3819 30
	ldr	r3, [sp, #4]
	ldr	r3, [r3, #4]
	.loc 1 3819 15
	cmp	r3, #0
	beq	.L664
	.loc 1 3821 47
	ldr	r3, [sp, #4]
	ldr	r3, [r3, #4]
	mov	r1, r3
	movs	r0, #8
	bl	LoRaMacCryptoSetKey
	mov	r3, r0
	.loc 1 3821 19
	cmp	r3, #0
	beq	.L727
	.loc 1 3823 28
	movs	r3, #17
	b	.L716
.L664:
	.loc 1 3828 24
	movs	r3, #3
	strb	r3, [sp, #23]
	.loc 1 3830 13
	b	.L727
.L626:
	.loc 1 3834 30
	ldr	r3, [sp, #4]
	ldr	r3, [r3, #4]
	.loc 1 3834 15
	cmp	r3, #0
	beq	.L666
	.loc 1 3836 47
	ldr	r3, [sp, #4]
	ldr	r3, [r3, #4]
	mov	r1, r3
	movs	r0, #127
	bl	LoRaMacCryptoSetKey
	mov	r3, r0
	.loc 1 3836 19
	cmp	r3, #0
	beq	.L728
	.loc 1 3838 28
	movs	r3, #17
	b	.L716
.L666:
	.loc 1 3843 24
	movs	r3, #3
	strb	r3, [sp, #23]
	.loc 1 3845 13
	b	.L728
.L746:
	.align	2
.L745:
	.word	MacCtx
.L625:
	.loc 1 3849 30
	ldr	r3, [sp, #4]
	ldr	r3, [r3, #4]
	.loc 1 3849 15
	cmp	r3, #0
	beq	.L668
	.loc 1 3851 47
	ldr	r3, [sp, #4]
	ldr	r3, [r3, #4]
	mov	r1, r3
	movs	r0, #128
	bl	LoRaMacCryptoSetKey
	mov	r3, r0
	.loc 1 3851 19
	cmp	r3, #0
	beq	.L729
	.loc 1 3853 28
	movs	r3, #17
	b	.L716
.L668:
	.loc 1 3858 24
	movs	r3, #3
	strb	r3, [sp, #23]
	.loc 1 3860 13
	b	.L729
.L624:
	.loc 1 3864 30
	ldr	r3, [sp, #4]
	ldr	r3, [r3, #4]
	.loc 1 3864 15
	cmp	r3, #0
	beq	.L670
	.loc 1 3866 47
	ldr	r3, [sp, #4]
	ldr	r3, [r3, #4]
	mov	r1, r3
	movs	r0, #129
	bl	LoRaMacCryptoSetKey
	mov	r3, r0
	.loc 1 3866 19
	cmp	r3, #0
	beq	.L730
	.loc 1 3868 28
	movs	r3, #17
	b	.L716
.L670:
	.loc 1 3873 24
	movs	r3, #3
	strb	r3, [sp, #23]
	.loc 1 3875 13
	b	.L730
.L623:
	.loc 1 3879 30
	ldr	r3, [sp, #4]
	ldr	r3, [r3, #4]
	.loc 1 3879 15
	cmp	r3, #0
	beq	.L672
	.loc 1 3881 47
	ldr	r3, [sp, #4]
	ldr	r3, [r3, #4]
	mov	r1, r3
	movs	r0, #130
	bl	LoRaMacCryptoSetKey
	mov	r3, r0
	.loc 1 3881 19
	cmp	r3, #0
	beq	.L731
	.loc 1 3883 28
	movs	r3, #17
	b	.L716
.L672:
	.loc 1 3888 24
	movs	r3, #3
	strb	r3, [sp, #23]
	.loc 1 3890 13
	b	.L731
.L622:
	.loc 1 3894 30
	ldr	r3, [sp, #4]
	ldr	r3, [r3, #4]
	.loc 1 3894 15
	cmp	r3, #0
	beq	.L674
	.loc 1 3896 47
	ldr	r3, [sp, #4]
	ldr	r3, [r3, #4]
	mov	r1, r3
	movs	r0, #131
	bl	LoRaMacCryptoSetKey
	mov	r3, r0
	.loc 1 3896 19
	cmp	r3, #0
	beq	.L732
	.loc 1 3898 28
	movs	r3, #17
	b	.L716
.L674:
	.loc 1 3903 24
	movs	r3, #3
	strb	r3, [sp, #23]
	.loc 1 3905 13
	b	.L732
.L621:
	.loc 1 3909 30
	ldr	r3, [sp, #4]
	ldr	r3, [r3, #4]
	.loc 1 3909 15
	cmp	r3, #0
	beq	.L676
	.loc 1 3911 47
	ldr	r3, [sp, #4]
	ldr	r3, [r3, #4]
	mov	r1, r3
	movs	r0, #132
	bl	LoRaMacCryptoSetKey
	mov	r3, r0
	.loc 1 3911 19
	cmp	r3, #0
	beq	.L733
	.loc 1 3913 28
	movs	r3, #17
	b	.L716
.L676:
	.loc 1 3918 24
	movs	r3, #3
	strb	r3, [sp, #23]
	.loc 1 3920 13
	b	.L733
.L620:
	.loc 1 3924 30
	ldr	r3, [sp, #4]
	ldr	r3, [r3, #4]
	.loc 1 3924 15
	cmp	r3, #0
	beq	.L678
	.loc 1 3926 47
	ldr	r3, [sp, #4]
	ldr	r3, [r3, #4]
	mov	r1, r3
	movs	r0, #133
	bl	LoRaMacCryptoSetKey
	mov	r3, r0
	.loc 1 3926 19
	cmp	r3, #0
	beq	.L734
	.loc 1 3928 28
	movs	r3, #17
	b	.L716
.L678:
	.loc 1 3933 24
	movs	r3, #3
	strb	r3, [sp, #23]
	.loc 1 3935 13
	b	.L734
.L619:
	.loc 1 3939 30
	ldr	r3, [sp, #4]
	ldr	r3, [r3, #4]
	.loc 1 3939 15
	cmp	r3, #0
	beq	.L680
	.loc 1 3941 47
	ldr	r3, [sp, #4]
	ldr	r3, [r3, #4]
	mov	r1, r3
	movs	r0, #134
	bl	LoRaMacCryptoSetKey
	mov	r3, r0
	.loc 1 3941 19
	cmp	r3, #0
	beq	.L735
	.loc 1 3943 28
	movs	r3, #17
	b	.L716
.L680:
	.loc 1 3948 24
	movs	r3, #3
	strb	r3, [sp, #23]
	.loc 1 3950 13
	b	.L735
.L618:
	.loc 1 3954 30
	ldr	r3, [sp, #4]
	ldr	r3, [r3, #4]
	.loc 1 3954 15
	cmp	r3, #0
	beq	.L682
	.loc 1 3956 47
	ldr	r3, [sp, #4]
	ldr	r3, [r3, #4]
	mov	r1, r3
	movs	r0, #135
	bl	LoRaMacCryptoSetKey
	mov	r3, r0
	.loc 1 3956 19
	cmp	r3, #0
	beq	.L736
	.loc 1 3958 28
	movs	r3, #17
	b	.L716
.L682:
	.loc 1 3963 24
	movs	r3, #3
	strb	r3, [sp, #23]
	.loc 1 3965 13
	b	.L736
.L617:
	.loc 1 3969 30
	ldr	r3, [sp, #4]
	ldr	r3, [r3, #4]
	.loc 1 3969 15
	cmp	r3, #0
	beq	.L684
	.loc 1 3971 47
	ldr	r3, [sp, #4]
	ldr	r3, [r3, #4]
	mov	r1, r3
	movs	r0, #136
	bl	LoRaMacCryptoSetKey
	mov	r3, r0
	.loc 1 3971 19
	cmp	r3, #0
	beq	.L737
	.loc 1 3973 28
	movs	r3, #17
	b	.L716
.L684:
	.loc 1 3978 24
	movs	r3, #3
	strb	r3, [sp, #23]
	.loc 1 3980 13
	b	.L737
.L616:
	.loc 1 3984 30
	ldr	r3, [sp, #4]
	ldr	r3, [r3, #4]
	.loc 1 3984 15
	cmp	r3, #0
	beq	.L686
	.loc 1 3986 47
	ldr	r3, [sp, #4]
	ldr	r3, [r3, #4]
	mov	r1, r3
	movs	r0, #137
	bl	LoRaMacCryptoSetKey
	mov	r3, r0
	.loc 1 3986 19
	cmp	r3, #0
	beq	.L738
	.loc 1 3988 28
	movs	r3, #17
	b	.L716
.L686:
	.loc 1 3993 24
	movs	r3, #3
	strb	r3, [sp, #23]
	.loc 1 3995 13
	b	.L738
.L615:
	.loc 1 3999 30
	ldr	r3, [sp, #4]
	ldr	r3, [r3, #4]
	.loc 1 3999 15
	cmp	r3, #0
	beq	.L688
	.loc 1 4001 47
	ldr	r3, [sp, #4]
	ldr	r3, [r3, #4]
	mov	r1, r3
	movs	r0, #138
	bl	LoRaMacCryptoSetKey
	mov	r3, r0
	.loc 1 4001 19
	cmp	r3, #0
	beq	.L739
	.loc 1 4003 28
	movs	r3, #17
	b	.L716
.L688:
	.loc 1 4008 24
	movs	r3, #3
	strb	r3, [sp, #23]
	.loc 1 4010 13
	b	.L739
.L614:
	.loc 1 4014 30
	ldr	r3, [sp, #4]
	ldr	r3, [r3, #4]
	.loc 1 4014 15
	cmp	r3, #0
	beq	.L690
	.loc 1 4016 47
	ldr	r3, [sp, #4]
	ldr	r3, [r3, #4]
	mov	r1, r3
	movs	r0, #139
	bl	LoRaMacCryptoSetKey
	mov	r3, r0
	.loc 1 4016 19
	cmp	r3, #0
	beq	.L740
	.loc 1 4018 28
	movs	r3, #17
	b	.L716
.L690:
	.loc 1 4023 24
	movs	r3, #3
	strb	r3, [sp, #23]
	.loc 1 4025 13
	b	.L740
.L613:
	.loc 1 4029 19
	ldr	r3, .L747
	ldr	r3, [r3, #1156]
	.loc 1 4029 57
	ldr	r2, [sp, #4]
	ldrb	r2, [r2, #4]	@ zero_extendqisi2
	.loc 1 4029 42
	strb	r2, [r3, #241]
	.loc 1 4030 18
	ldr	r3, .L747+4
	ldr	r3, [r3, #88]
	.loc 1 4030 43
	ldr	r2, .L747
	ldr	r2, [r2, #1156]
	.loc 1 4030 13
	ldrb	r2, [r2, #241]	@ zero_extendqisi2
	mov	r0, r2
	blx	r3
.LVL27:
	.loc 1 4031 13
	b	.L643
.L612:
	.loc 1 4035 19
	ldr	r3, .L747
	ldr	r3, [r3, #1156]
	.loc 1 4035 59
	ldr	r2, [sp, #4]
	ldrb	r2, [r2, #4]	@ zero_extendqisi2
	.loc 1 4035 44
	strb	r2, [r3, #319]
	.loc 1 4036 13
	b	.L643
.L611:
	.loc 1 4040 70
	ldr	r3, [sp, #4]
	ldrb	r3, [r3, #8]	@ zero_extendqisi2
	sxtb	r3, r3
	.loc 1 4040 44
	strb	r3, [sp, #8]
	.loc 1 4041 61
	ldr	r3, .L747
	ldr	r3, [r3, #1156]
	.loc 1 4041 79
	ldrb	r3, [r3, #301]	@ zero_extendqisi2
	.loc 1 4041 53
	strb	r3, [sp, #9]
	.loc 1 4043 37
	ldr	r3, .L747
	ldr	r3, [r3, #1156]
	.loc 1 4043 17
	ldrb	r3, [r3]	@ zero_extendqisi2
	add	r1, sp, #8
	movs	r2, #7
	mov	r0, r3
	bl	RegionVerify
	mov	r3, r0
	.loc 1 4043 15
	cmp	r3, #0
	beq	.L692
	.loc 1 4045 23
	ldr	r3, .L747
	ldr	r3, [r3, #1156]
	.loc 1 4045 53
	ldr	r2, [sp, #4]
	add	r3, r3, #284
	adds	r2, r2, #4
	ldm	r2, {r0, r1}
	stm	r3, {r0, r1}
	.loc 1 4051 13
	b	.L643
.L692:
	.loc 1 4049 24
	movs	r3, #3
	strb	r3, [sp, #23]
	.loc 1 4051 13
	b	.L643
.L610:
	.loc 1 4055 70
	ldr	r3, [sp, #4]
	ldrb	r3, [r3, #8]	@ zero_extendqisi2
	sxtb	r3, r3
	.loc 1 4055 44
	strb	r3, [sp, #8]
	.loc 1 4056 61
	ldr	r3, .L747
	ldr	r3, [r3, #1156]
	.loc 1 4056 79
	ldrb	r3, [r3, #301]	@ zero_extendqisi2
	.loc 1 4056 53
	strb	r3, [sp, #9]
	.loc 1 4058 37
	ldr	r3, .L747
	ldr	r3, [r3, #1156]
	.loc 1 4058 17
	ldrb	r3, [r3]	@ zero_extendqisi2
	add	r1, sp, #8
	movs	r2, #7
	mov	r0, r3
	bl	RegionVerify
	mov	r3, r0
	.loc 1 4058 15
	cmp	r3, #0
	beq	.L694
	.loc 1 4060 23
	ldr	r3, .L747
	ldr	r3, [r3, #1156]
	.loc 1 4060 61
	ldr	r2, [sp, #4]
	adds	r3, r3, #40
	adds	r2, r2, #4
	ldm	r2, {r0, r1}
	stm	r3, {r0, r1}
	.loc 1 4066 13
	b	.L643
.L694:
	.loc 1 4064 24
	movs	r3, #3
	strb	r3, [sp, #23]
	.loc 1 4066 13
	b	.L643
.L609:
	.loc 1 4070 70
	ldr	r3, [sp, #4]
	ldrb	r3, [r3, #8]	@ zero_extendqisi2
	sxtb	r3, r3
	.loc 1 4070 44
	strb	r3, [sp, #8]
	.loc 1 4071 61
	ldr	r3, .L747
	ldr	r3, [r3, #1156]
	.loc 1 4071 79
	ldrb	r3, [r3, #301]	@ zero_extendqisi2
	.loc 1 4071 53
	strb	r3, [sp, #9]
	.loc 1 4073 37
	ldr	r3, .L747
	ldr	r3, [r3, #1156]
	.loc 1 4073 17
	ldrb	r3, [r3]	@ zero_extendqisi2
	add	r1, sp, #8
	movs	r2, #7
	mov	r0, r3
	bl	RegionVerify
	mov	r3, r0
	.loc 1 4073 15
	cmp	r3, #0
	beq	.L696
	.loc 1 4075 23
	ldr	r3, .L747
	ldr	r3, [r3, #1156]
	.loc 1 4075 53
	ldr	r2, [sp, #4]
	add	r3, r3, #292
	adds	r2, r2, #4
	ldm	r2, {r0, r1}
	stm	r3, {r0, r1}
	.loc 1 4077 29
	ldr	r3, .L747
	ldr	r3, [r3, #1156]
	.loc 1 4077 36
	ldrb	r3, [r3, #240]	@ zero_extendqisi2
	.loc 1 4077 19
	cmp	r3, #2
	bne	.L741
	.loc 1 4077 74 discriminator 1
	ldr	r3, .L747
	ldr	r3, [r3, #1156]
	.loc 1 4077 81 discriminator 1
	ldrb	r3, [r3, #472]	@ zero_extendqisi2
	.loc 1 4077 63 discriminator 1
	cmp	r3, #0
	beq	.L741
	.loc 1 4083 26
	ldr	r3, .L747+4
	ldr	r3, [r3, #44]
	.loc 1 4083 21
	blx	r3
.LVL28:
	.loc 1 4085 21
	bl	OpenContinuousRxCWindow
	.loc 1 4092 13
	b	.L741
.L696:
	.loc 1 4090 24
	movs	r3, #3
	strb	r3, [sp, #23]
	.loc 1 4092 13
	b	.L741
.L608:
	.loc 1 4096 70
	ldr	r3, [sp, #4]
	ldrb	r3, [r3, #8]	@ zero_extendqisi2
	sxtb	r3, r3
	.loc 1 4096 44
	strb	r3, [sp, #8]
	.loc 1 4097 61
	ldr	r3, .L747
	ldr	r3, [r3, #1156]
	.loc 1 4097 79
	ldrb	r3, [r3, #301]	@ zero_extendqisi2
	.loc 1 4097 53
	strb	r3, [sp, #9]
	.loc 1 4099 37
	ldr	r3, .L747
	ldr	r3, [r3, #1156]
	.loc 1 4099 17
	ldrb	r3, [r3]	@ zero_extendqisi2
	add	r1, sp, #8
	movs	r2, #7
	mov	r0, r3
	bl	RegionVerify
	mov	r3, r0
	.loc 1 4099 15
	cmp	r3, #0
	beq	.L698
	.loc 1 4101 23
	ldr	r3, .L747
	ldr	r3, [r3, #1156]
	.loc 1 4101 61
	ldr	r2, [sp, #4]
	adds	r3, r3, #48
	adds	r2, r2, #4
	ldm	r2, {r0, r1}
	stm	r3, {r0, r1}
	.loc 1 4107 13
	b	.L643
.L698:
	.loc 1 4105 24
	movs	r3, #3
	strb	r3, [sp, #23]
	.loc 1 4107 13
	b	.L643
.L606:
	.loc 1 4111 55
	ldr	r3, [sp, #4]
	ldr	r3, [r3, #4]
	.loc 1 4111 40
	str	r3, [sp, #12]
	.loc 1 4112 42
	movs	r3, #1
	strb	r3, [sp, #16]
	.loc 1 4114 42
	ldr	r3, .L747
	ldr	r3, [r3, #1156]
	.loc 1 4114 17
	ldrb	r3, [r3]	@ zero_extendqisi2
	add	r2, sp, #12
	mov	r1, r2
	mov	r0, r3
	bl	RegionChanMaskSet
	mov	r3, r0
	.loc 1 4114 74
	eor	r3, r3, #1
	uxtb	r3, r3
	.loc 1 4114 15
	cmp	r3, #0
	beq	.L742
	.loc 1 4116 24
	movs	r3, #3
	strb	r3, [sp, #23]
	.loc 1 4118 13
	b	.L742
.L607:
	.loc 1 4122 55
	ldr	r3, [sp, #4]
	ldr	r3, [r3, #4]
	.loc 1 4122 40
	str	r3, [sp, #12]
	.loc 1 4123 42
	movs	r3, #0
	strb	r3, [sp, #16]
	.loc 1 4125 42
	ldr	r3, .L747
	ldr	r3, [r3, #1156]
	.loc 1 4125 17
	ldrb	r3, [r3]	@ zero_extendqisi2
	add	r2, sp, #12
	mov	r1, r2
	mov	r0, r3
	bl	RegionChanMaskSet
	mov	r3, r0
	.loc 1 4125 74
	eor	r3, r3, #1
	uxtb	r3, r3
	.loc 1 4125 15
	cmp	r3, #0
	beq	.L743
	.loc 1 4127 24
	movs	r3, #3
	strb	r3, [sp, #23]
	.loc 1 4129 13
	b	.L743
.L605:
	.loc 1 4133 32
	ldr	r3, [sp, #4]
	ldrb	r3, [r3, #4]	@ zero_extendqisi2
	.loc 1 4133 15
	cmp	r3, #0
	beq	.L702
	.loc 1 4134 32 discriminator 1
	ldr	r3, [sp, #4]
	ldrb	r3, [r3, #4]	@ zero_extendqisi2
	.loc 1 4133 56 discriminator 1
	cmp	r3, #15
	bhi	.L702
	.loc 1 4136 23
	ldr	r3, .L747
	ldr	r3, [r3, #1156]
	.loc 1 4136 73
	ldr	r2, [sp, #4]
	ldrb	r2, [r2, #4]	@ zero_extendqisi2
	.loc 1 4136 58
	strb	r2, [r3, #280]
	.loc 1 4142 13
	b	.L643
.L702:
	.loc 1 4140 24
	movs	r3, #3
	strb	r3, [sp, #23]
	.loc 1 4142 13
	b	.L643
.L604:
	.loc 1 4146 19
	ldr	r3, .L747
	ldr	r3, [r3, #1156]
	.loc 1 4146 65
	ldr	r2, [sp, #4]
	ldr	r2, [r2, #4]
	.loc 1 4146 50
	str	r2, [r3, #260]
	.loc 1 4147 13
	b	.L643
.L603:
	.loc 1 4151 19
	ldr	r3, .L747
	ldr	r3, [r3, #1156]
	.loc 1 4151 67
	ldr	r2, [sp, #4]
	ldr	r2, [r2, #4]
	.loc 1 4151 52
	str	r2, [r3, #264]
	.loc 1 4152 13
	b	.L643
.L602:
	.loc 1 4156 19
	ldr	r3, .L747
	ldr	r3, [r3, #1156]
	.loc 1 4156 67
	ldr	r2, [sp, #4]
	ldr	r2, [r2, #4]
	.loc 1 4156 52
	str	r2, [r3, #268]
	.loc 1 4157 13
	b	.L643
.L601:
	.loc 1 4161 19
	ldr	r3, .L747
	ldr	r3, [r3, #1156]
	.loc 1 4161 70
	ldr	r2, [sp, #4]
	ldr	r2, [r2, #4]
	.loc 1 4161 55
	str	r2, [r3, #272]
	.loc 1 4162 13
	b	.L643
.L600:
	.loc 1 4166 19
	ldr	r3, .L747
	ldr	r3, [r3, #1156]
	.loc 1 4166 70
	ldr	r2, [sp, #4]
	ldr	r2, [r2, #4]
	.loc 1 4166 55
	str	r2, [r3, #276]
	.loc 1 4167 13
	b	.L643
.L599:
	.loc 1 4171 59
	ldr	r3, [sp, #4]
	ldrsb	r3, [r3, #4]
	.loc 1 4171 44
	strb	r3, [sp, #8]
	.loc 1 4173 37
	ldr	r3, .L747
	ldr	r3, [r3, #1156]
	.loc 1 4173 17
	ldrb	r3, [r3]	@ zero_extendqisi2
	add	r1, sp, #8
	movs	r2, #6
	mov	r0, r3
	bl	RegionVerify
	mov	r3, r0
	.loc 1 4173 15
	cmp	r3, #0
	beq	.L704
	.loc 1 4175 23
	ldr	r3, .L747
	ldr	r3, [r3, #1156]
	.loc 1 4175 90
	ldrsb	r2, [sp, #8]
	.loc 1 4175 67
	strb	r2, [r3, #5]
	.loc 1 4181 13
	b	.L643
.L704:
	.loc 1 4179 24
	movs	r3, #3
	strb	r3, [sp, #23]
	.loc 1 4181 13
	b	.L643
.L598:
	.loc 1 4185 59
	ldr	r3, [sp, #4]
	ldrsb	r3, [r3, #4]
	.loc 1 4185 44
	strb	r3, [sp, #8]
	.loc 1 4186 59
	ldr	r3, .L747
	ldr	r3, [r3, #1156]
	.loc 1 4186 77
	ldrb	r3, [r3, #300]	@ zero_extendqisi2
	.loc 1 4186 51
	strb	r3, [sp, #10]
	.loc 1 4188 37
	ldr	r3, .L747
	ldr	r3, [r3, #1156]
	.loc 1 4188 17
	ldrb	r3, [r3]	@ zero_extendqisi2
	add	r1, sp, #8
	movs	r2, #5
	mov	r0, r3
	bl	RegionVerify
	mov	r3, r0
	.loc 1 4188 15
	cmp	r3, #0
	beq	.L706
	.loc 1 4190 23
	ldr	r3, .L747
	ldr	r3, [r3, #1156]
	.loc 1 4190 82
	ldrsb	r2, [sp, #8]
	.loc 1 4190 59
	strb	r2, [r3, #249]
	.loc 1 4196 13
	b	.L643
.L748:
	.align	2
.L747:
	.word	MacCtx
	.word	Radio
.L706:
	.loc 1 4194 24
	movs	r3, #3
	strb	r3, [sp, #23]
	.loc 1 4196 13
	b	.L643
.L596:
	.loc 1 4200 43
	ldr	r3, [sp, #4]
	ldrsb	r3, [r3, #4]
	.loc 1 4200 28
	strb	r3, [sp, #8]
	.loc 1 4202 37
	ldr	r3, .L749
	ldr	r3, [r3, #1156]
	.loc 1 4202 17
	ldrb	r3, [r3]	@ zero_extendqisi2
	add	r1, sp, #8
	movs	r2, #10
	mov	r0, r3
	bl	RegionVerify
	mov	r3, r0
	.loc 1 4202 15
	cmp	r3, #0
	beq	.L708
	.loc 1 4204 23
	ldr	r3, .L749
	ldr	r3, [r3, #1156]
	.loc 1 4204 74
	ldrsb	r2, [sp, #8]
	.loc 1 4204 66
	strb	r2, [r3, #4]
	.loc 1 4210 13
	b	.L643
.L708:
	.loc 1 4208 24
	movs	r3, #3
	strb	r3, [sp, #23]
	.loc 1 4210 13
	b	.L643
.L597:
	.loc 1 4214 43
	ldr	r3, [sp, #4]
	ldrsb	r3, [r3, #4]
	.loc 1 4214 28
	strb	r3, [sp, #8]
	.loc 1 4216 37
	ldr	r3, .L749
	ldr	r3, [r3, #1156]
	.loc 1 4216 17
	ldrb	r3, [r3]	@ zero_extendqisi2
	add	r1, sp, #8
	movs	r2, #9
	mov	r0, r3
	bl	RegionVerify
	mov	r3, r0
	.loc 1 4216 15
	cmp	r3, #0
	beq	.L710
	.loc 1 4218 23
	ldr	r3, .L749
	ldr	r3, [r3, #1156]
	.loc 1 4218 66
	ldrsb	r2, [sp, #8]
	.loc 1 4218 58
	strb	r2, [r3, #248]
	.loc 1 4224 13
	b	.L643
.L710:
	.loc 1 4222 24
	movs	r3, #3
	strb	r3, [sp, #23]
	.loc 1 4224 13
	b	.L643
.L595:
	.loc 1 4228 63
	ldr	r3, .L749
	ldr	r3, [r3, #1156]
	.loc 1 4228 122
	ldr	r2, [sp, #4]
	ldr	r2, [r2, #4]
	.loc 1 4228 107
	str	r2, [r3, #8]
	.loc 1 4228 19
	ldr	r2, .L749
	ldr	r2, [r2, #1156]
	.loc 1 4228 89
	ldr	r3, [r3, #8]
	.loc 1 4228 55
	str	r3, [r2, #252]
	.loc 1 4229 13
	b	.L643
.L594:
	.loc 1 4233 59
	ldr	r3, .L749
	ldr	r3, [r3, #1156]
	.loc 1 4233 114
	ldr	r2, [sp, #4]
	ldrb	r2, [r2, #4]	@ zero_extendqisi2
	.loc 1 4233 99
	strb	r2, [r3, #12]
	.loc 1 4233 19
	ldr	r2, .L749
	ldr	r2, [r2, #1156]
	.loc 1 4233 85
	ldrb	r3, [r3, #12]	@ zero_extendqisi2
	.loc 1 4233 51
	strb	r3, [r2, #256]
	.loc 1 4234 13
	b	.L643
.L593:
	.loc 1 4238 19
	ldr	r3, .L749
	ldr	r3, [r3, #1156]
	.loc 1 4238 65
	ldr	r2, [sp, #4]
	ldr	r2, [r2, #4]	@ float
	.loc 1 4238 50
	str	r2, [r3, #308]	@ float
	.loc 1 4239 13
	b	.L643
.L592:
	.loc 1 4243 19
	ldr	r3, .L749
	ldr	r3, [r3, #1156]
	.loc 1 4243 73
	ldr	r2, [sp, #4]
	ldr	r2, [r2, #4]	@ float
	.loc 1 4243 58
	str	r2, [r3, #64]	@ float
	.loc 1 4244 13
	b	.L643
.L591:
	.loc 1 4248 30
	ldr	r3, [sp, #4]
	ldr	r3, [r3, #4]
	.loc 1 4248 15
	cmp	r3, #0
	beq	.L712
	.loc 1 4250 26
	ldr	r3, [sp, #4]
	ldr	r3, [r3, #4]
	mov	r0, r3
	bl	RestoreCtxs
	mov	r3, r0
	strb	r3, [sp, #23]
	.loc 1 4256 13
	b	.L643
.L712:
	.loc 1 4254 24
	movs	r3, #3
	strb	r3, [sp, #23]
	.loc 1 4256 13
	b	.L643
.L589:
	.loc 1 4260 53
	ldr	r3, [sp, #4]
	ldrb	r3, [r3, #6]	@ zero_extendqisi2
	.loc 1 4260 15
	cmp	r3, #1
	bhi	.L714
	.loc 1 4262 23
	ldr	r3, .L749
	ldr	r3, [r3, #1156]
	.loc 1 4262 40
	ldr	r2, [sp, #4]
	ldr	r2, [r2, #4]
	str	r2, [r3, #468]
	.loc 1 4264 47
	ldr	r3, [sp, #4]
	ldr	r0, [r3, #4]
	bl	LoRaMacCryptoSetLrWanVersion
	mov	r3, r0
	.loc 1 4264 19
	cmp	r3, #0
	beq	.L744
	.loc 1 4266 28
	movs	r3, #17
	b	.L716
.L714:
	.loc 1 4271 24
	movs	r3, #3
	strb	r3, [sp, #23]
	.loc 1 4273 13
	b	.L744
.L588:
	.loc 1 4277 22
	ldr	r0, [sp, #4]
	bl	LoRaMacMibClassBSetRequestConfirm
	mov	r3, r0
	strb	r3, [sp, #23]
	.loc 1 4278 13
	b	.L643
.L717:
	.loc 1 3672 13
	nop
	b	.L643
.L718:
	.loc 1 3680 13
	nop
	b	.L643
.L719:
	.loc 1 3710 13
	nop
	b	.L643
.L720:
	.loc 1 3725 13
	nop
	b	.L643
.L721:
	.loc 1 3740 13
	nop
	b	.L643
.L722:
	.loc 1 3755 13
	nop
	b	.L643
.L723:
	.loc 1 3770 13
	nop
	b	.L643
.L724:
	.loc 1 3785 13
	nop
	b	.L643
.L725:
	.loc 1 3800 13
	nop
	b	.L643
.L726:
	.loc 1 3815 13
	nop
	b	.L643
.L727:
	.loc 1 3830 13
	nop
	b	.L643
.L728:
	.loc 1 3845 13
	nop
	b	.L643
.L729:
	.loc 1 3860 13
	nop
	b	.L643
.L730:
	.loc 1 3875 13
	nop
	b	.L643
.L731:
	.loc 1 3890 13
	nop
	b	.L643
.L732:
	.loc 1 3905 13
	nop
	b	.L643
.L733:
	.loc 1 3920 13
	nop
	b	.L643
.L734:
	.loc 1 3935 13
	nop
	b	.L643
.L735:
	.loc 1 3950 13
	nop
	b	.L643
.L736:
	.loc 1 3965 13
	nop
	b	.L643
.L737:
	.loc 1 3980 13
	nop
	b	.L643
.L738:
	.loc 1 3995 13
	nop
	b	.L643
.L739:
	.loc 1 4010 13
	nop
	b	.L643
.L740:
	.loc 1 4025 13
	nop
	b	.L643
.L741:
	.loc 1 4092 13
	nop
	b	.L643
.L742:
	.loc 1 4118 13
	nop
	b	.L643
.L743:
	.loc 1 4129 13
	nop
	b	.L643
.L744:
	.loc 1 4273 13
	nop
.L643:
	.loc 1 4281 5
	bl	EventRegionNvmCtxChanged
	.loc 1 4282 5
	bl	EventMacNvmCtxChanged
	.loc 1 4283 12
	ldrb	r3, [sp, #23]	@ zero_extendqisi2
.L716:
	.loc 1 4284 1 discriminator 25
	mov	r0, r3
	add	sp, sp, #28
.LCFI147:
	@ sp needed
	ldr	pc, [sp], #4
.L750:
	.align	2
.L749:
	.word	MacCtx
.LFE70:
	.size	LoRaMacMibSetRequestConfirm, .-LoRaMacMibSetRequestConfirm
	.section	.text.LoRaMacChannelAdd,"ax",%progbits
	.align	1
	.global	LoRaMacChannelAdd
	.syntax unified
	.thumb
	.thumb_func
	.fpu fpv4-sp-d16
	.type	LoRaMacChannelAdd, %function
LoRaMacChannelAdd:
.LFB71:
	.loc 1 4287 1
	@ args = 0, pretend = 0, frame = 24
	@ frame_needed = 0, uses_anonymous_args = 0
	push	{r4, lr}
.LCFI148:
	sub	sp, sp, #24
.LCFI149:
	mov	r4, r0
	mov	r0, sp
	stm	r0, {r1, r2, r3}
	mov	r3, r4
	strb	r3, [sp, #15]
	.loc 1 4291 17
	ldr	r3, .L755
	ldr	r3, [r3, #832]
	.loc 1 4291 27
	and	r3, r3, #2
	.loc 1 4291 7
	cmp	r3, #0
	beq	.L752
	.loc 1 4293 21
	ldr	r3, .L755
	ldr	r3, [r3, #832]
	.loc 1 4293 31
	and	r3, r3, #64
	.loc 1 4293 11
	cmp	r3, #0
	bne	.L752
	.loc 1 4295 20
	movs	r3, #1
	b	.L754
.L752:
	.loc 1 4299 27
	mov	r3, sp
	str	r3, [sp, #16]
	.loc 1 4300 26
	ldrb	r3, [sp, #15]
	strb	r3, [sp, #20]
	.loc 1 4302 5
	bl	EventRegionNvmCtxChanged
	.loc 1 4303 36
	ldr	r3, .L755
	ldr	r3, [r3, #1156]
	.loc 1 4303 12
	ldrb	r3, [r3]	@ zero_extendqisi2
	add	r2, sp, #16
	mov	r1, r2
	mov	r0, r3
	bl	RegionChannelAdd
	mov	r3, r0
.L754:
	.loc 1 4304 1 discriminator 1
	mov	r0, r3
	add	sp, sp, #24
.LCFI150:
	@ sp needed
	pop	{r4, pc}
.L756:
	.align	2
.L755:
	.word	MacCtx
.LFE71:
	.size	LoRaMacChannelAdd, .-LoRaMacChannelAdd
	.section	.text.LoRaMacChannelRemove,"ax",%progbits
	.align	1
	.global	LoRaMacChannelRemove
	.syntax unified
	.thumb
	.thumb_func
	.fpu fpv4-sp-d16
	.type	LoRaMacChannelRemove, %function
LoRaMacChannelRemove:
.LFB72:
	.loc 1 4307 1
	@ args = 0, pretend = 0, frame = 16
	@ frame_needed = 0, uses_anonymous_args = 0
	push	{lr}
.LCFI151:
	sub	sp, sp, #20
.LCFI152:
	mov	r3, r0
	strb	r3, [sp, #7]
	.loc 1 4310 17
	ldr	r3, .L762
	ldr	r3, [r3, #832]
	.loc 1 4310 27
	and	r3, r3, #2
	.loc 1 4310 7
	cmp	r3, #0
	beq	.L758
	.loc 1 4312 21
	ldr	r3, .L762
	ldr	r3, [r3, #832]
	.loc 1 4312 31
	and	r3, r3, #64
	.loc 1 4312 11
	cmp	r3, #0
	bne	.L758
	.loc 1 4314 20
	movs	r3, #1
	b	.L761
.L758:
	.loc 1 4318 29
	ldrb	r3, [sp, #7]
	strb	r3, [sp, #12]
	.loc 1 4320 37
	ldr	r3, .L762
	ldr	r3, [r3, #1156]
	.loc 1 4320 9
	ldrb	r3, [r3]	@ zero_extendqisi2
	add	r2, sp, #12
	mov	r1, r2
	mov	r0, r3
	bl	RegionChannelsRemove
	mov	r3, r0
	.loc 1 4320 71
	eor	r3, r3, #1
	uxtb	r3, r3
	.loc 1 4320 7
	cmp	r3, #0
	beq	.L760
	.loc 1 4322 16
	movs	r3, #3
	b	.L761
.L760:
	.loc 1 4325 5
	bl	EventRegionNvmCtxChanged
	.loc 1 4326 12
	movs	r3, #0
.L761:
	.loc 1 4327 1 discriminator 1
	mov	r0, r3
	add	sp, sp, #20
.LCFI153:
	@ sp needed
	ldr	pc, [sp], #4
.L763:
	.align	2
.L762:
	.word	MacCtx
.LFE72:
	.size	LoRaMacChannelRemove, .-LoRaMacChannelRemove
	.section .rodata
	.align	2
.LC0:
	.byte	-128
	.byte	-125
	.byte	-122
	.byte	-119
	.section	.text.LoRaMacMcChannelSetup,"ax",%progbits
	.align	1
	.global	LoRaMacMcChannelSetup
	.syntax unified
	.thumb
	.thumb_func
	.fpu fpv4-sp-d16
	.type	LoRaMacMcChannelSetup, %function
LoRaMacMcChannelSetup:
.LFB73:
	.loc 1 4330 1
	@ args = 0, pretend = 0, frame = 16
	@ frame_needed = 0, uses_anonymous_args = 0
	push	{r4, r5, lr}
.LCFI154:
	sub	sp, sp, #20
.LCFI155:
	str	r0, [sp, #4]
	.loc 1 4331 17
	ldr	r3, .L772
	ldr	r3, [r3, #832]
	.loc 1 4331 27
	and	r3, r3, #2
	.loc 1 4331 7
	cmp	r3, #0
	beq	.L765
	.loc 1 4333 16
	movs	r3, #1
	b	.L771
.L765:
	.loc 1 4336 16
	ldr	r3, [sp, #4]
	ldrb	r3, [r3, #2]	@ zero_extendqisi2
	.loc 1 4336 7
	cmp	r3, #3
	bls	.L767
	.loc 1 4338 16
	movs	r3, #22
	b	.L771
.L767:
	.loc 1 4341 11
	ldr	r3, .L772
	ldr	r2, [r3, #1156]
	.loc 1 4341 48
	ldr	r3, [sp, #4]
	ldrb	r3, [r3, #2]	@ zero_extendqisi2
	mov	r1, r3
	.loc 1 4341 73
	mov	r3, r1
	lsls	r3, r3, #2
	add	r3, r3, r1
	lsls	r3, r3, #3
	add	r3, r3, r2
	add	r2, r3, #80
	ldr	r3, [sp, #4]
	mov	r4, r2
	mov	r5, r3
	ldmia	r5!, {r0, r1, r2, r3}
	stmia	r4!, {r0, r1, r2, r3}
	ldm	r5, {r0, r1, r2}
	stm	r4, {r0, r1, r2}
	.loc 1 4343 27
	ldr	r3, .L772+4
	ldr	r3, [r3]
	str	r3, [sp, #12]
	.loc 1 4344 44
	ldr	r3, [sp, #4]
	ldrb	r3, [r3, #2]	@ zero_extendqisi2
	.loc 1 4344 9
	add	r2, sp, #16
	add	r3, r3, r2
	ldrb	r2, [r3, #-4]	@ zero_extendqisi2
	ldr	r3, [sp, #4]
	ldr	r3, [r3, #8]
	mov	r1, r3
	mov	r0, r2
	bl	LoRaMacCryptoSetKey
	mov	r3, r0
	.loc 1 4344 7
	cmp	r3, #0
	beq	.L768
	.loc 1 4346 16
	movs	r3, #17
	b	.L771
.L768:
	.loc 1 4349 9
	ldr	r3, [sp, #4]
	ldrb	r2, [r3, #2]	@ zero_extendqisi2
	ldr	r3, [sp, #4]
	ldr	r3, [r3, #4]
	mov	r1, r3
	mov	r0, r2
	bl	LoRaMacCryptoDeriveMcSessionKeyPair
	mov	r3, r0
	.loc 1 4349 7
	cmp	r3, #0
	beq	.L769
	.loc 1 4351 16
	movs	r3, #17
	b	.L771
.L769:
	.loc 1 4354 16
	ldr	r3, [sp, #4]
	ldrb	r3, [r3]	@ zero_extendqisi2
	.loc 1 4354 7
	cmp	r3, #1
	bne	.L770
	.loc 1 4357 54
	ldr	r3, .L772
	ldr	r2, [r3, #1156]
	.loc 1 4357 91
	ldr	r3, [sp, #4]
	ldrb	r3, [r3, #2]	@ zero_extendqisi2
	mov	r1, r3
	.loc 1 4357 9
	mov	r3, r1
	lsls	r3, r3, #2
	add	r3, r3, r1
	lsls	r3, r3, #3
	adds	r3, r3, #80
	add	r3, r3, r2
	mov	r0, r3
	bl	LoRaMacClassBSetMulticastPeriodicity
.L770:
	.loc 1 4361 12
	ldr	r3, .L772
	ldr	r2, [r3, #1156]
	.loc 1 4361 49
	ldr	r3, [sp, #4]
	ldrb	r3, [r3, #2]	@ zero_extendqisi2
	mov	r1, r3
	.loc 1 4361 59
	mov	r3, r1
	lsls	r3, r3, #2
	add	r3, r3, r1
	lsls	r3, r3, #3
	add	r3, r3, r2
	adds	r3, r3, #108
	ldr	r3, [r3]
	.loc 1 4361 76
	mov	r2, #-1
	str	r2, [r3]
	.loc 1 4363 5
	bl	EventMacNvmCtxChanged
	.loc 1 4364 5
	bl	EventRegionNvmCtxChanged
	.loc 1 4365 12
	movs	r3, #0
.L771:
	.loc 1 4366 1 discriminator 1
	mov	r0, r3
	add	sp, sp, #20
.LCFI156:
	@ sp needed
	pop	{r4, r5, pc}
.L773:
	.align	2
.L772:
	.word	MacCtx
	.word	.LC0
.LFE73:
	.size	LoRaMacMcChannelSetup, .-LoRaMacMcChannelSetup
	.section	.text.LoRaMacMcChannelDelete,"ax",%progbits
	.align	1
	.global	LoRaMacMcChannelDelete
	.syntax unified
	.thumb
	.thumb_func
	.fpu fpv4-sp-d16
	.type	LoRaMacMcChannelDelete, %function
LoRaMacMcChannelDelete:
.LFB74:
	.loc 1 4369 1
	@ args = 0, pretend = 0, frame = 40
	@ frame_needed = 0, uses_anonymous_args = 0
	push	{r4, r5, lr}
.LCFI157:
	sub	sp, sp, #44
.LCFI158:
	mov	r3, r0
	strb	r3, [sp, #7]
	.loc 1 4370 17
	ldr	r3, .L780
	ldr	r3, [r3, #832]
	.loc 1 4370 27
	and	r3, r3, #2
	.loc 1 4370 7
	cmp	r3, #0
	beq	.L775
	.loc 1 4372 16
	movs	r3, #1
	b	.L779
.L775:
	.loc 1 4375 7
	ldrb	r3, [sp, #7]	@ zero_extendqisi2
	cmp	r3, #3
	bhi	.L777
	.loc 1 4376 17 discriminator 1
	ldr	r3, .L780
	ldr	r1, [r3, #1156]
	.loc 1 4376 69 discriminator 1
	ldrb	r2, [sp, #7]	@ zero_extendqisi2
	mov	r3, r2
	lsls	r3, r3, #2
	add	r3, r3, r2
	lsls	r3, r3, #3
	add	r3, r3, r1
	adds	r3, r3, #81
	ldrb	r3, [r3]	@ zero_extendqisi2
	.loc 1 4376 80 discriminator 1
	eor	r3, r3, #1
	uxtb	r3, r3
	.loc 1 4375 43 discriminator 1
	cmp	r3, #0
	beq	.L778
.L777:
	.loc 1 4378 16
	movs	r3, #22
	b	.L779
.L778:
	.loc 1 4384 5
	add	r3, sp, #12
	movs	r2, #28
	movs	r1, #0
	mov	r0, r3
	bl	memset1
	.loc 1 4386 11
	ldr	r3, .L780
	ldr	r1, [r3, #1156]
	.loc 1 4386 49
	ldrb	r2, [sp, #7]	@ zero_extendqisi2
	.loc 1 4386 64
	mov	r3, r2
	lsls	r3, r3, #2
	add	r3, r3, r2
	lsls	r3, r3, #3
	add	r3, r3, r1
	adds	r3, r3, #80
	mov	r5, r3
	add	r4, sp, #12
	ldmia	r4!, {r0, r1, r2, r3}
	stmia	r5!, {r0, r1, r2, r3}
	ldm	r4, {r0, r1, r2}
	stm	r5, {r0, r1, r2}
	.loc 1 4388 5
	bl	EventMacNvmCtxChanged
	.loc 1 4389 5
	bl	EventRegionNvmCtxChanged
	.loc 1 4390 12
	movs	r3, #0
.L779:
	.loc 1 4391 1 discriminator 1
	mov	r0, r3
	add	sp, sp, #44
.LCFI159:
	@ sp needed
	pop	{r4, r5, pc}
.L781:
	.align	2
.L780:
	.word	MacCtx
.LFE74:
	.size	LoRaMacMcChannelDelete, .-LoRaMacMcChannelDelete
	.section	.text.LoRaMacMcChannelGetGroupId,"ax",%progbits
	.align	1
	.global	LoRaMacMcChannelGetGroupId
	.syntax unified
	.thumb
	.thumb_func
	.fpu fpv4-sp-d16
	.type	LoRaMacMcChannelGetGroupId, %function
LoRaMacMcChannelGetGroupId:
.LFB75:
	.loc 1 4394 1
	@ args = 0, pretend = 0, frame = 16
	@ frame_needed = 0, uses_anonymous_args = 0
	@ link register save eliminated.
	sub	sp, sp, #16
.LCFI160:
	str	r0, [sp, #4]
.LBB24:
	.loc 1 4395 18
	movs	r3, #0
	strb	r3, [sp, #15]
	.loc 1 4395 5
	b	.L783
.L786:
	.loc 1 4397 32
	ldr	r3, .L787
	ldr	r1, [r3, #1156]
	.loc 1 4397 78
	ldrb	r2, [sp, #15]	@ zero_extendqisi2
	mov	r3, r2
	lsls	r3, r3, #2
	add	r3, r3, r2
	lsls	r3, r3, #3
	add	r3, r3, r1
	adds	r3, r3, #84
	ldr	r3, [r3]
	.loc 1 4397 11
	ldr	r2, [sp, #4]
	cmp	r2, r3
	bne	.L784
	.loc 1 4399 20
	ldrb	r3, [sp, #15]	@ zero_extendqisi2
	b	.L785
.L784:
	.loc 1 4395 50 discriminator 2
	ldrb	r3, [sp, #15]	@ zero_extendqisi2
	adds	r3, r3, #1
	strb	r3, [sp, #15]
.L783:
	.loc 1 4395 5 discriminator 1
	ldrb	r3, [sp, #15]	@ zero_extendqisi2
	cmp	r3, #3
	bls	.L786
.LBE24:
	.loc 1 4402 12
	movs	r3, #255
.L785:
	.loc 1 4403 1
	mov	r0, r3
	add	sp, sp, #16
.LCFI161:
	@ sp needed
	bx	lr
.L788:
	.align	2
.L787:
	.word	MacCtx
.LFE75:
	.size	LoRaMacMcChannelGetGroupId, .-LoRaMacMcChannelGetGroupId
	.section	.text.LoRaMacMcChannelSetupRxParams,"ax",%progbits
	.align	1
	.global	LoRaMacMcChannelSetupRxParams
	.syntax unified
	.thumb
	.thumb_func
	.fpu fpv4-sp-d16
	.type	LoRaMacMcChannelSetupRxParams, %function
LoRaMacMcChannelSetupRxParams:
.LFB76:
	.loc 1 4406 1
	@ args = 0, pretend = 0, frame = 24
	@ frame_needed = 0, uses_anonymous_args = 0
	push	{lr}
.LCFI162:
	sub	sp, sp, #28
.LCFI163:
	mov	r3, r0
	str	r1, [sp, #8]
	str	r2, [sp, #4]
	strb	r3, [sp, #15]
	.loc 1 4407 31
	ldrb	r3, [sp, #15]
	and	r3, r3, #3
	uxtb	r3, r3
	.loc 1 4407 19
	adds	r3, r3, #28
	uxtb	r2, r3
	.loc 1 4407 12
	ldr	r3, [sp, #4]
	strb	r2, [r3]
	.loc 1 4409 17
	ldr	r3, .L804
	ldr	r3, [r3, #832]
	.loc 1 4409 27
	and	r3, r3, #2
	.loc 1 4409 7
	cmp	r3, #0
	beq	.L790
	.loc 1 4411 16
	movs	r3, #1
	b	.L803
.L790:
	.loc 1 4414 36
	ldr	r3, .L804
	ldr	r1, [r3, #1156]
	.loc 1 4414 88
	ldrb	r2, [sp, #15]	@ zero_extendqisi2
	.loc 1 4414 19
	mov	r3, r2
	lsls	r3, r3, #2
	add	r3, r3, r2
	lsls	r3, r3, #3
	add	r3, r3, r1
	adds	r3, r3, #80
	ldrb	r3, [r3]
	strb	r3, [sp, #23]
	.loc 1 4415 7
	ldrb	r3, [sp, #23]	@ zero_extendqisi2
	cmp	r3, #0
	beq	.L792
	.loc 1 4415 33 discriminator 1
	ldrb	r3, [sp, #23]	@ zero_extendqisi2
	cmp	r3, #2
	bls	.L793
.L792:
	.loc 1 4417 16
	movs	r3, #3
	b	.L803
.L793:
	.loc 1 4420 7
	ldrb	r3, [sp, #15]	@ zero_extendqisi2
	cmp	r3, #3
	bhi	.L794
	.loc 1 4421 17 discriminator 1
	ldr	r3, .L804
	ldr	r1, [r3, #1156]
	.loc 1 4421 69 discriminator 1
	ldrb	r2, [sp, #15]	@ zero_extendqisi2
	mov	r3, r2
	lsls	r3, r3, #2
	add	r3, r3, r2
	lsls	r3, r3, #3
	add	r3, r3, r1
	adds	r3, r3, #81
	ldrb	r3, [r3]	@ zero_extendqisi2
	.loc 1 4421 80 discriminator 1
	eor	r3, r3, #1
	uxtb	r3, r3
	.loc 1 4420 43 discriminator 1
	cmp	r3, #0
	beq	.L795
.L794:
	.loc 1 4423 16
	movs	r3, #22
	b	.L803
.L795:
	.loc 1 4425 13
	ldr	r3, [sp, #4]
	ldrb	r3, [r3]	@ zero_extendqisi2
	and	r3, r3, #15
	uxtb	r2, r3
	ldr	r3, [sp, #4]
	strb	r2, [r3]
	.loc 1 4429 7
	ldrb	r3, [sp, #23]	@ zero_extendqisi2
	cmp	r3, #1
	bne	.L796
	.loc 1 4431 58
	ldr	r3, [sp, #8]
	ldrsb	r3, [r3, #4]
	.loc 1 4431 40
	strb	r3, [sp, #16]
	b	.L797
.L796:
	.loc 1 4435 58
	ldr	r3, [sp, #8]
	ldrsb	r3, [r3, #4]
	.loc 1 4435 40
	strb	r3, [sp, #16]
.L797:
	.loc 1 4437 53
	ldr	r3, .L804
	ldr	r3, [r3, #1156]
	.loc 1 4437 71
	ldrb	r3, [r3, #301]	@ zero_extendqisi2
	.loc 1 4437 45
	strb	r3, [sp, #17]
	.loc 1 4439 29
	ldr	r3, .L804
	ldr	r3, [r3, #1156]
	.loc 1 4439 9
	ldrb	r3, [r3]	@ zero_extendqisi2
	add	r1, sp, #16
	movs	r2, #7
	mov	r0, r3
	bl	RegionVerify
	mov	r3, r0
	.loc 1 4439 7
	cmp	r3, #0
	beq	.L798
	.loc 1 4441 17
	ldr	r3, [sp, #4]
	ldrb	r3, [r3]	@ zero_extendqisi2
	bic	r3, r3, #4
	uxtb	r2, r3
	ldr	r3, [sp, #4]
	strb	r2, [r3]
.L798:
	.loc 1 4445 7
	ldrb	r3, [sp, #23]	@ zero_extendqisi2
	cmp	r3, #1
	bne	.L799
	.loc 1 4447 44
	ldr	r3, [sp, #8]
	ldr	r3, [r3]
	.loc 1 4447 26
	str	r3, [sp, #16]
	b	.L800
.L799:
	.loc 1 4451 44
	ldr	r3, [sp, #8]
	ldr	r3, [r3]
	.loc 1 4451 26
	str	r3, [sp, #16]
.L800:
	.loc 1 4453 29
	ldr	r3, .L804
	ldr	r3, [r3, #1156]
	.loc 1 4453 9
	ldrb	r3, [r3]	@ zero_extendqisi2
	add	r1, sp, #16
	movs	r2, #0
	mov	r0, r3
	bl	RegionVerify
	mov	r3, r0
	.loc 1 4453 7
	cmp	r3, #0
	beq	.L801
	.loc 1 4455 17
	ldr	r3, [sp, #4]
	ldrb	r3, [r3]	@ zero_extendqisi2
	bic	r3, r3, #8
	uxtb	r2, r3
	ldr	r3, [sp, #4]
	strb	r2, [r3]
.L801:
	.loc 1 4458 9
	ldr	r3, [sp, #4]
	ldrb	r3, [r3]	@ zero_extendqisi2
	mov	r2, r3
	.loc 1 4458 30
	ldrb	r3, [sp, #15]	@ zero_extendqisi2
	and	r3, r3, #3
	.loc 1 4458 7
	cmp	r2, r3
	bne	.L802
	.loc 1 4461 15
	ldr	r3, .L804
	ldr	r1, [r3, #1156]
	.loc 1 4461 67
	ldrb	r2, [sp, #15]	@ zero_extendqisi2
	.loc 1 4461 77
	mov	r3, r2
	lsls	r3, r3, #2
	add	r3, r3, r2
	lsls	r3, r3, #3
	add	r3, r3, r1
	adds	r3, r3, #96
	ldr	r2, [sp, #8]
	adds	r3, r3, #4
	ldm	r2, {r0, r1}
	stm	r3, {r0, r1}
.L802:
	.loc 1 4464 5
	bl	EventMacNvmCtxChanged
	.loc 1 4465 5
	bl	EventRegionNvmCtxChanged
	.loc 1 4466 12
	movs	r3, #0
.L803:
	.loc 1 4467 1 discriminator 1
	mov	r0, r3
	add	sp, sp, #28
.LCFI164:
	@ sp needed
	ldr	pc, [sp], #4
.L805:
	.align	2
.L804:
	.word	MacCtx
.LFE76:
	.size	LoRaMacMcChannelSetupRxParams, .-LoRaMacMcChannelSetupRxParams
	.section	.text.LoRaMacMlmeRequest,"ax",%progbits
	.align	1
	.global	LoRaMacMlmeRequest
	.syntax unified
	.thumb
	.thumb_func
	.fpu fpv4-sp-d16
	.type	LoRaMacMlmeRequest, %function
LoRaMacMlmeRequest:
.LFB77:
	.loc 1 4470 1
	@ args = 0, pretend = 0, frame = 24
	@ frame_needed = 0, uses_anonymous_args = 0
	push	{r4, lr}
.LCFI165:
	sub	sp, sp, #24
.LCFI166:
	str	r0, [sp, #4]
	.loc 1 4471 21
	movs	r3, #2
	strb	r3, [sp, #23]
	.loc 1 4473 13
	movs	r3, #0
	strh	r3, [sp, #12]	@ movhi
	.loc 1 4475 7
	ldr	r3, [sp, #4]
	cmp	r3, #0
	bne	.L807
	.loc 1 4477 16
	movs	r3, #3
	b	.L833
.L807:
	.loc 1 4479 9
	bl	LoRaMacIsBusy
	mov	r3, r0
	.loc 1 4479 7
	cmp	r3, #0
	beq	.L809
	.loc 1 4481 16
	movs	r3, #1
	b	.L833
.L809:
	.loc 1 4483 9
	bl	LoRaMacConfirmQueueIsFull
	mov	r3, r0
	.loc 1 4483 7
	cmp	r3, #0
	beq	.L810
	.loc 1 4485 16
	movs	r3, #1
	b	.L833
.L810:
	.loc 1 4488 9
	bl	LoRaMacConfirmQueueGetCnt
	mov	r3, r0
	.loc 1 4488 7
	cmp	r3, #0
	bne	.L811
	.loc 1 4490 9
	movs	r2, #20
	movs	r1, #0
	ldr	r0, .L840
	bl	memset1
.L811:
	.loc 1 4492 31
	ldr	r3, .L840+4
	movs	r2, #1
	strb	r2, [r3, #1105]
	.loc 1 4494 34
	ldr	r2, .L840+4
	ldrb	r3, [r2, #1153]
	orr	r3, r3, #4
	strb	r3, [r2, #1153]
	.loc 1 4495 39
	ldr	r3, [sp, #4]
	ldrb	r3, [r3]	@ zero_extendqisi2
	.loc 1 4495 26
	strb	r3, [sp, #16]
	.loc 1 4496 25
	movs	r3, #1
	strb	r3, [sp, #17]
	.loc 1 4497 46
	movs	r3, #0
	strb	r3, [sp, #19]
	.loc 1 4499 24
	ldr	r3, [sp, #4]
	ldrb	r3, [r3]	@ zero_extendqisi2
	cmp	r3, #13
	bhi	.L834
	adr	r2, .L814
	ldr	pc, [r2, r3, lsl #2]
	.p2align 2
.L814:
	.word	.L821+1
	.word	.L834+1
	.word	.L834+1
	.word	.L820+1
	.word	.L819+1
	.word	.L818+1
	.word	.L834+1
	.word	.L834+1
	.word	.L834+1
	.word	.L817+1
	.word	.L834+1
	.word	.L816+1
	.word	.L815+1
	.word	.L813+1
	.p2align 1
.L821:
	.loc 1 4503 25
	ldr	r3, .L840+4
	ldr	r3, [r3, #832]
	.loc 1 4503 35
	and	r3, r3, #32
	.loc 1 4503 15
	cmp	r3, #0
	beq	.L822
	.loc 1 4505 24
	movs	r3, #1
	b	.L833
.L822:
	.loc 1 4508 13
	bl	ResetMacParameters
	.loc 1 4510 82
	ldr	r3, .L840+4
	ldr	r3, [r3, #1156]
	.loc 1 4510 57
	ldrb	r0, [r3]	@ zero_extendqisi2
	.loc 1 4510 120
	ldr	r3, [sp, #4]
	ldrb	r3, [r3, #4]	@ zero_extendqisi2
	.loc 1 4510 57
	sxtb	r3, r3
	.loc 1 4510 19
	ldr	r2, .L840+4
	ldr	r4, [r2, #1156]
	.loc 1 4510 57
	movs	r2, #0
	mov	r1, r3
	bl	RegionAlternateDr
	mov	r3, r0
	.loc 1 4510 55
	strb	r3, [r4, #249]
	.loc 1 4512 33
	movs	r3, #7
	strb	r3, [sp, #17]
	.loc 1 4514 22
	movs	r0, #255
	bl	SendReJoinReq
	mov	r3, r0
	strb	r3, [sp, #23]
	.loc 1 4516 15
	ldrb	r3, [sp, #23]	@ zero_extendqisi2
	cmp	r3, #0
	beq	.L835
	.loc 1 4519 86
	ldr	r3, .L840+4
	ldr	r3, [r3, #1156]
	.loc 1 4519 61
	ldrb	r0, [r3]	@ zero_extendqisi2
	.loc 1 4519 124
	ldr	r3, [sp, #4]
	ldrb	r3, [r3, #4]	@ zero_extendqisi2
	.loc 1 4519 61
	sxtb	r3, r3
	.loc 1 4519 23
	ldr	r2, .L840+4
	ldr	r4, [r2, #1156]
	.loc 1 4519 61
	movs	r2, #1
	mov	r1, r3
	bl	RegionAlternateDr
	mov	r3, r0
	.loc 1 4519 59
	strb	r3, [r4, #249]
	.loc 1 4521 13
	b	.L835
.L820:
	.loc 1 4526 20
	movs	r3, #0
	strb	r3, [sp, #23]
	.loc 1 4527 17
	add	r3, sp, #12
	movs	r2, #0
	mov	r1, r3
	movs	r0, #2
	bl	LoRaMacCommandsAddCmd
	mov	r3, r0
	.loc 1 4527 15
	cmp	r3, #0
	beq	.L836
	.loc 1 4529 24
	movs	r3, #19
	strb	r3, [sp, #23]
	.loc 1 4531 13
	b	.L836
.L819:
	.loc 1 4535 22
	ldr	r3, [sp, #4]
	ldrh	r3, [r3, #4]
	mov	r0, r3
	bl	SetTxContinuousWave
	mov	r3, r0
	strb	r3, [sp, #23]
	.loc 1 4536 13
	b	.L824
.L818:
	.loc 1 4541 22
	ldr	r3, [sp, #4]
	ldrh	r0, [r3, #4]
	ldr	r3, [sp, #4]
	ldr	r1, [r3, #8]
	ldr	r3, [sp, #4]
	ldrb	r3, [r3, #12]	@ zero_extendqisi2
	mov	r2, r3
	bl	SetTxContinuousWave1
	mov	r3, r0
	strb	r3, [sp, #23]
	.loc 1 4542 13
	b	.L824
.L817:
	.loc 1 4547 20
	movs	r3, #0
	strb	r3, [sp, #23]
	.loc 1 4548 17
	add	r3, sp, #12
	movs	r2, #0
	mov	r1, r3
	movs	r0, #13
	bl	LoRaMacCommandsAddCmd
	mov	r3, r0
	.loc 1 4548 15
	cmp	r3, #0
	beq	.L837
	.loc 1 4550 24
	movs	r3, #19
	strb	r3, [sp, #23]
	.loc 1 4552 13
	b	.L837
.L815:
	.loc 1 4556 23
	ldr	r3, .L840+4
	ldr	r3, [r3, #1156]
	.loc 1 4556 30
	ldrb	r3, [r3, #240]	@ zero_extendqisi2
	.loc 1 4556 15
	cmp	r3, #0
	bne	.L838
.LBB25:
	.loc 1 4558 25
	ldr	r3, [sp, #4]
	ldrb	r3, [r3, #4]
	strb	r3, [sp, #22]
	.loc 1 4561 92
	ldr	r3, [sp, #4]
	ldrb	r3, [r3, #4]
	ubfx	r3, r3, #0, #3
	uxtb	r3, r3
	.loc 1 4561 17
	mov	r0, r3
	bl	LoRaMacClassBSetPingSlotInfo
	.loc 1 4562 34
	ldrb	r3, [sp, #22]
	strb	r3, [sp, #12]
	.loc 1 4563 24
	movs	r3, #0
	strb	r3, [sp, #23]
	.loc 1 4564 21
	add	r3, sp, #12
	movs	r2, #1
	mov	r1, r3
	movs	r0, #16
	bl	LoRaMacCommandsAddCmd
	mov	r3, r0
	.loc 1 4564 19
	cmp	r3, #0
	beq	.L838
	.loc 1 4566 28
	movs	r3, #19
	strb	r3, [sp, #23]
.LBE25:
	.loc 1 4569 13
	b	.L838
.L813:
	.loc 1 4574 20
	movs	r3, #0
	strb	r3, [sp, #23]
	.loc 1 4575 17
	add	r3, sp, #12
	movs	r2, #0
	mov	r1, r3
	movs	r0, #18
	bl	LoRaMacCommandsAddCmd
	mov	r3, r0
	.loc 1 4575 15
	cmp	r3, #0
	beq	.L839
	.loc 1 4577 24
	movs	r3, #19
	strb	r3, [sp, #23]
	.loc 1 4579 13
	b	.L839
.L816:
	.loc 1 4584 54
	movs	r3, #1
	strb	r3, [sp, #19]
	.loc 1 4586 17
	bl	LoRaMacClassBIsAcquisitionInProgress
	mov	r3, r0
	.loc 1 4586 57
	eor	r3, r3, #1
	uxtb	r3, r3
	.loc 1 4586 15
	cmp	r3, #0
	beq	.L829
	.loc 1 4589 17
	movs	r0, #0
	bl	LoRaMacClassBSetBeaconState
	.loc 1 4590 17
	movs	r0, #0
	bl	LoRaMacClassBBeaconTimerEvent
	.loc 1 4592 24
	movs	r3, #0
	strb	r3, [sp, #23]
	.loc 1 4598 13
	b	.L824
.L829:
	.loc 1 4596 24
	movs	r3, #1
	strb	r3, [sp, #23]
	.loc 1 4598 13
	b	.L824
.L834:
	.loc 1 4601 13
	nop
	b	.L824
.L835:
	.loc 1 4521 13
	nop
	b	.L824
.L836:
	.loc 1 4531 13
	nop
	b	.L824
.L837:
	.loc 1 4552 13
	nop
	b	.L824
.L838:
	.loc 1 4569 13
	nop
	b	.L824
.L839:
	.loc 1 4579 13
	nop
.L824:
	.loc 1 4604 7
	ldrb	r3, [sp, #23]	@ zero_extendqisi2
	cmp	r3, #0
	beq	.L831
	.loc 1 4606 13
	bl	LoRaMacConfirmQueueGetCnt
	mov	r3, r0
	.loc 1 4606 11
	cmp	r3, #0
	bne	.L832
	.loc 1 4608 37
	ldr	r3, .L840+4
	movs	r2, #0
	strb	r2, [r3, #1044]
	.loc 1 4609 42
	ldr	r2, .L840+4
	ldrb	r3, [r2, #1153]
	bfc	r3, #2, #1
	strb	r3, [r2, #1153]
	b	.L832
.L831:
	.loc 1 4614 9
	add	r3, sp, #16
	mov	r0, r3
	bl	LoRaMacConfirmQueueAdd
	.loc 1 4615 9
	bl	EventMacNvmCtxChanged
.L832:
	.loc 1 4617 12
	ldrb	r3, [sp, #23]	@ zero_extendqisi2
.L833:
	.loc 1 4618 1 discriminator 1
	mov	r0, r3
	add	sp, sp, #24
.LCFI167:
	@ sp needed
	pop	{r4, pc}
.L841:
	.align	2
.L840:
	.word	MacCtx+1104
	.word	MacCtx
.LFE77:
	.size	LoRaMacMlmeRequest, .-LoRaMacMlmeRequest
	.section	.text.LoRaMacMcpsRequest,"ax",%progbits
	.align	1
	.global	LoRaMacMcpsRequest
	.syntax unified
	.thumb
	.thumb_func
	.fpu fpv4-sp-d16
	.type	LoRaMacMcpsRequest, %function
LoRaMacMcpsRequest:
.LFB78:
	.loc 1 4621 1
	@ args = 0, pretend = 0, frame = 40
	@ frame_needed = 0, uses_anonymous_args = 0
	push	{lr}
.LCFI168:
	sub	sp, sp, #44
.LCFI169:
	str	r0, [sp, #4]
	.loc 1 4624 21
	movs	r3, #2
	strb	r3, [sp, #39]
	.loc 1 4627 13
	movs	r3, #0
	strb	r3, [sp, #38]
	.loc 1 4630 12
	movs	r3, #0
	strb	r3, [sp, #29]
	.loc 1 4631 10
	movs	r3, #0
	strb	r3, [sp, #28]
	.loc 1 4633 7
	ldr	r3, [sp, #4]
	cmp	r3, #0
	bne	.L843
	.loc 1 4635 16
	movs	r3, #3
	b	.L855
.L843:
	.loc 1 4637 9
	bl	LoRaMacIsBusy
	mov	r3, r0
	.loc 1 4637 7
	cmp	r3, #0
	beq	.L845
	.loc 1 4639 16
	movs	r3, #1
	b	.L855
.L845:
	.loc 1 4642 18
	movs	r3, #0
	strb	r3, [sp, #16]
	.loc 1 4643 5
	movs	r2, #20
	movs	r1, #0
	ldr	r0, .L857
	bl	memset1
	.loc 1 4644 31
	ldr	r3, .L857+4
	movs	r2, #1
	strb	r2, [r3, #1085]
	.loc 1 4647 37
	ldr	r3, .L857+4
	movs	r2, #1
	strb	r2, [r3, #1042]
	.loc 1 4649 24
	ldr	r3, [sp, #4]
	ldrb	r3, [r3]	@ zero_extendqisi2
	.loc 1 4649 5
	cmp	r3, #3
	beq	.L846
	cmp	r3, #3
	bgt	.L856
	cmp	r3, #0
	beq	.L848
	cmp	r3, #1
	beq	.L849
	.loc 1 4687 13
	b	.L856
.L848:
	.loc 1 4653 25
	movs	r3, #1
	strb	r3, [sp, #28]
	.loc 1 4654 38
	ldr	r3, .L857+4
	movs	r2, #1
	strb	r2, [r3, #1041]
	.loc 1 4656 31
	ldrb	r3, [sp, #16]
	movs	r2, #2
	bfi	r3, r2, #5, #3
	strb	r3, [sp, #16]
	.loc 1 4657 19
	ldr	r3, [sp, #4]
	ldrb	r3, [r3, #4]
	strb	r3, [sp, #38]
	.loc 1 4658 21
	ldr	r3, [sp, #4]
	ldr	r3, [r3, #8]
	str	r3, [sp, #32]
	.loc 1 4659 25
	ldr	r3, [sp, #4]
	ldrh	r3, [r3, #12]	@ movhi
	strh	r3, [sp, #30]	@ movhi
	.loc 1 4660 22
	ldr	r3, [sp, #4]
	ldrb	r3, [r3, #14]
	strb	r3, [sp, #29]
	.loc 1 4661 13
	b	.L850
.L849:
	.loc 1 4665 25
	movs	r3, #1
	strb	r3, [sp, #28]
	.loc 1 4666 40
	ldr	r3, [sp, #4]
	ldrb	r3, [r3, #15]	@ zero_extendqisi2
	cmp	r3, #8
	it	cs
	movcs	r3, #8
	uxtb	r2, r3
	.loc 1 4666 38
	ldr	r3, .L857+4
	strb	r2, [r3, #1041]
	.loc 1 4668 31
	ldrb	r3, [sp, #16]
	movs	r2, #4
	bfi	r3, r2, #5, #3
	strb	r3, [sp, #16]
	.loc 1 4669 19
	ldr	r3, [sp, #4]
	ldrb	r3, [r3, #4]
	strb	r3, [sp, #38]
	.loc 1 4670 21
	ldr	r3, [sp, #4]
	ldr	r3, [r3, #8]
	str	r3, [sp, #32]
	.loc 1 4671 25
	ldr	r3, [sp, #4]
	ldrh	r3, [r3, #12]	@ movhi
	strh	r3, [sp, #30]	@ movhi
	.loc 1 4672 22
	ldr	r3, [sp, #4]
	ldrb	r3, [r3, #14]
	strb	r3, [sp, #29]
	.loc 1 4673 13
	b	.L850
.L846:
	.loc 1 4677 25
	movs	r3, #1
	strb	r3, [sp, #28]
	.loc 1 4678 38
	ldr	r3, .L857+4
	movs	r2, #1
	strb	r2, [r3, #1041]
	.loc 1 4680 31
	ldrb	r3, [sp, #16]
	orr	r3, r3, #224
	strb	r3, [sp, #16]
	.loc 1 4681 21
	ldr	r3, [sp, #4]
	ldr	r3, [r3, #4]
	str	r3, [sp, #32]
	.loc 1 4682 25
	ldr	r3, [sp, #4]
	ldrh	r3, [r3, #8]	@ movhi
	strh	r3, [sp, #30]	@ movhi
	.loc 1 4683 22
	ldr	r3, [sp, #4]
	ldrb	r3, [r3, #10]
	strb	r3, [sp, #29]
	.loc 1 4684 13
	b	.L850
.L856:
	.loc 1 4687 13
	nop
.L850:
	.loc 1 4691 22
	movs	r3, #2
	strb	r3, [sp, #24]
	.loc 1 4692 36
	ldr	r3, .L857+4
	ldr	r3, [r3, #1156]
	.loc 1 4692 54
	ldrb	r3, [r3, #300]	@ zero_extendqisi2
	.loc 1 4692 28
	strb	r3, [sp, #26]
	.loc 1 4693 41
	ldr	r3, .L857+4
	ldr	r3, [r3, #1156]
	.loc 1 4693 16
	ldrb	r3, [r3]	@ zero_extendqisi2
	add	r2, sp, #24
	mov	r1, r2
	mov	r0, r3
	bl	RegionGetPhyParam
	mov	r3, r0
	str	r3, [sp, #20]
	.loc 1 4696 16
	ldr	r3, [sp, #20]
	sxtb	r3, r3
	.loc 1 4696 14
	ldrsb	r2, [sp, #29]
	cmp	r3, r2
	it	lt
	movlt	r3, r2
	strb	r3, [sp, #29]
	.loc 1 4698 7
	ldrb	r3, [sp, #28]	@ zero_extendqisi2
	cmp	r3, #0
	beq	.L851
	.loc 1 4700 19
	ldr	r3, .L857+4
	ldr	r3, [r3, #1156]
	.loc 1 4700 26
	ldrb	r3, [r3, #242]	@ zero_extendqisi2
	.loc 1 4700 38
	eor	r3, r3, #1
	uxtb	r3, r3
	.loc 1 4700 11
	cmp	r3, #0
	beq	.L852
	.loc 1 4702 44
	ldrb	r3, [sp, #29]
	strb	r3, [sp, #12]
	.loc 1 4703 59
	ldr	r3, .L857+4
	ldr	r3, [r3, #1156]
	.loc 1 4703 77
	ldrb	r3, [r3, #300]	@ zero_extendqisi2
	.loc 1 4703 51
	strb	r3, [sp, #14]
	.loc 1 4705 37
	ldr	r3, .L857+4
	ldr	r3, [r3, #1156]
	.loc 1 4705 17
	ldrb	r3, [r3]	@ zero_extendqisi2
	add	r1, sp, #12
	movs	r2, #5
	mov	r0, r3
	bl	RegionVerify
	mov	r3, r0
	.loc 1 4705 15
	cmp	r3, #0
	beq	.L853
	.loc 1 4707 23
	ldr	r3, .L857+4
	ldr	r3, [r3, #1156]
	.loc 1 4707 82
	ldrsb	r2, [sp, #12]
	.loc 1 4707 59
	strb	r2, [r3, #249]
	b	.L852
.L853:
	.loc 1 4711 24
	movs	r3, #3
	b	.L855
.L852:
	.loc 1 4715 18
	ldrh	r3, [sp, #30]
	ldrb	r1, [sp, #38]	@ zero_extendqisi2
	add	r0, sp, #16
	ldr	r2, [sp, #32]
	bl	Send
	mov	r3, r0
	strb	r3, [sp, #39]
	.loc 1 4716 11
	ldrb	r3, [sp, #39]	@ zero_extendqisi2
	cmp	r3, #0
	bne	.L854
	.loc 1 4718 57
	ldr	r3, [sp, #4]
	ldrb	r2, [r3]	@ zero_extendqisi2
	.loc 1 4718 44
	ldr	r3, .L857+4
	strb	r2, [r3, #1084]
	.loc 1 4719 42
	ldr	r2, .L857+4
	ldrb	r3, [r2, #1153]
	orr	r3, r3, #1
	strb	r3, [r2, #1153]
	b	.L851
.L854:
	.loc 1 4723 37
	ldr	r3, .L857+4
	movs	r2, #0
	strb	r2, [r3, #1044]
.L851:
	.loc 1 4727 5
	bl	EventMacNvmCtxChanged
	.loc 1 4728 12
	ldrb	r3, [sp, #39]	@ zero_extendqisi2
.L855:
	.loc 1 4729 1 discriminator 1
	mov	r0, r3
	add	sp, sp, #44
.LCFI170:
	@ sp needed
	ldr	pc, [sp], #4
.L858:
	.align	2
.L857:
	.word	MacCtx+1084
	.word	MacCtx
.LFE78:
	.size	LoRaMacMcpsRequest, .-LoRaMacMcpsRequest
	.section	.text.LoRaMacTestSetDutyCycleOn,"ax",%progbits
	.align	1
	.global	LoRaMacTestSetDutyCycleOn
	.syntax unified
	.thumb
	.thumb_func
	.fpu fpv4-sp-d16
	.type	LoRaMacTestSetDutyCycleOn, %function
LoRaMacTestSetDutyCycleOn:
.LFB79:
	.loc 1 4732 1
	@ args = 0, pretend = 0, frame = 16
	@ frame_needed = 0, uses_anonymous_args = 0
	push	{lr}
.LCFI171:
	sub	sp, sp, #20
.LCFI172:
	mov	r3, r0
	strb	r3, [sp, #7]
	.loc 1 4735 22
	ldrb	r3, [sp, #7]
	strb	r3, [sp, #12]
	.loc 1 4737 29
	ldr	r3, .L862
	ldr	r3, [r3, #1156]
	.loc 1 4737 9
	ldrb	r3, [r3]	@ zero_extendqisi2
	add	r1, sp, #12
	movs	r2, #15
	mov	r0, r3
	bl	RegionVerify
	mov	r3, r0
	.loc 1 4737 7
	cmp	r3, #0
	beq	.L861
	.loc 1 4739 15
	ldr	r3, .L862
	ldr	r3, [r3, #1156]
	.loc 1 4739 36
	ldrb	r2, [sp, #7]
	strb	r2, [r3, #317]
.L861:
	.loc 1 4741 1
	nop
	add	sp, sp, #20
.LCFI173:
	@ sp needed
	ldr	pc, [sp], #4
.L863:
	.align	2
.L862:
	.word	MacCtx
.LFE79:
	.size	LoRaMacTestSetDutyCycleOn, .-LoRaMacTestSetDutyCycleOn
	.section	.debug_frame,"",%progbits
.Lframe0:
	.4byte	.LECIE0-.LSCIE0
.LSCIE0:
	.4byte	0xffffffff
	.byte	0x3
	.ascii	"\000"
	.uleb128 0x1
	.sleb128 -4
	.uleb128 0xe
	.byte	0xc
	.uleb128 0xd
	.uleb128 0
	.align	2
.LECIE0:
.LSFDE0:
	.4byte	.LEFDE0-.LASFDE0
.LASFDE0:
	.4byte	.Lframe0
	.4byte	.LFB0
	.4byte	.LFE0-.LFB0
	.byte	0x4
	.4byte	.LCFI0-.LFB0
	.byte	0xe
	.uleb128 0x8
	.byte	0x84
	.uleb128 0x2
	.byte	0x8e
	.uleb128 0x1
	.byte	0x4
	.4byte	.LCFI1-.LCFI0
	.byte	0xe
	.uleb128 0x10
	.byte	0x4
	.4byte	.LCFI2-.LCFI1
	.byte	0xe
	.uleb128 0x8
	.align	2
.LEFDE0:
.LSFDE2:
	.4byte	.LEFDE2-.LASFDE2
.LASFDE2:
	.4byte	.Lframe0
	.4byte	.LFB1
	.4byte	.LFE1-.LFB1
	.byte	0x4
	.4byte	.LCFI3-.LFB1
	.byte	0xe
	.uleb128 0x4
	.byte	0x8e
	.uleb128 0x1
	.byte	0x4
	.4byte	.LCFI4-.LCFI3
	.byte	0xe
	.uleb128 0x18
	.byte	0x4
	.4byte	.LCFI5-.LCFI4
	.byte	0xe
	.uleb128 0x4
	.align	2
.LEFDE2:
.LSFDE4:
	.4byte	.LEFDE4-.LASFDE4
.LASFDE4:
	.4byte	.Lframe0
	.4byte	.LFB2
	.4byte	.LFE2-.LFB2
	.byte	0x4
	.4byte	.LCFI6-.LFB2
	.byte	0xe
	.uleb128 0x8
	.byte	0x83
	.uleb128 0x2
	.byte	0x8e
	.uleb128 0x1
	.align	2
.LEFDE4:
.LSFDE6:
	.4byte	.LEFDE6-.LASFDE6
.LASFDE6:
	.4byte	.Lframe0
	.4byte	.LFB3
	.4byte	.LFE3-.LFB3
	.byte	0x4
	.4byte	.LCFI7-.LFB3
	.byte	0xe
	.uleb128 0x8
	.byte	0x83
	.uleb128 0x2
	.byte	0x8e
	.uleb128 0x1
	.align	2
.LEFDE6:
.LSFDE8:
	.4byte	.LEFDE8-.LASFDE8
.LASFDE8:
	.4byte	.Lframe0
	.4byte	.LFB4
	.4byte	.LFE4-.LFB4
	.byte	0x4
	.4byte	.LCFI8-.LFB4
	.byte	0xe
	.uleb128 0x8
	.byte	0x83
	.uleb128 0x2
	.byte	0x8e
	.uleb128 0x1
	.align	2
.LEFDE8:
.LSFDE10:
	.4byte	.LEFDE10-.LASFDE10
.LASFDE10:
	.4byte	.Lframe0
	.4byte	.LFB5
	.4byte	.LFE5-.LFB5
	.align	2
.LEFDE10:
.LSFDE12:
	.4byte	.LEFDE12-.LASFDE12
.LASFDE12:
	.4byte	.Lframe0
	.4byte	.LFB6
	.4byte	.LFE6-.LFB6
	.byte	0x4
	.4byte	.LCFI9-.LFB6
	.byte	0xe
	.uleb128 0x4
	.byte	0x8e
	.uleb128 0x1
	.byte	0x4
	.4byte	.LCFI10-.LCFI9
	.byte	0xe
	.uleb128 0x18
	.byte	0x4
	.4byte	.LCFI11-.LCFI10
	.byte	0xe
	.uleb128 0x4
	.align	2
.LEFDE12:
.LSFDE14:
	.4byte	.LEFDE14-.LASFDE14
.LASFDE14:
	.4byte	.Lframe0
	.4byte	.LFB7
	.4byte	.LFE7-.LFB7
	.byte	0x4
	.4byte	.LCFI12-.LFB7
	.byte	0xe
	.uleb128 0x8
	.byte	0x83
	.uleb128 0x2
	.byte	0x8e
	.uleb128 0x1
	.align	2
.LEFDE14:
.LSFDE16:
	.4byte	.LEFDE16-.LASFDE16
.LASFDE16:
	.4byte	.Lframe0
	.4byte	.LFB8
	.4byte	.LFE8-.LFB8
	.byte	0x4
	.4byte	.LCFI13-.LFB8
	.byte	0xe
	.uleb128 0xc
	.byte	0x84
	.uleb128 0x3
	.byte	0x85
	.uleb128 0x2
	.byte	0x8e
	.uleb128 0x1
	.byte	0x4
	.4byte	.LCFI14-.LCFI13
	.byte	0xe
	.uleb128 0xa8
	.byte	0x4
	.4byte	.LCFI15-.LCFI14
	.byte	0xe
	.uleb128 0xc
	.align	2
.LEFDE16:
.LSFDE18:
	.4byte	.LEFDE18-.LASFDE18
.LASFDE18:
	.4byte	.Lframe0
	.4byte	.LFB9
	.4byte	.LFE9-.LFB9
	.byte	0x4
	.4byte	.LCFI16-.LFB9
	.byte	0xe
	.uleb128 0x8
	.byte	0x83
	.uleb128 0x2
	.byte	0x8e
	.uleb128 0x1
	.align	2
.LEFDE18:
.LSFDE20:
	.4byte	.LEFDE20-.LASFDE20
.LASFDE20:
	.4byte	.Lframe0
	.4byte	.LFB10
	.4byte	.LFE10-.LFB10
	.byte	0x4
	.4byte	.LCFI17-.LFB10
	.byte	0xe
	.uleb128 0x4
	.byte	0x8e
	.uleb128 0x1
	.byte	0x4
	.4byte	.LCFI18-.LCFI17
	.byte	0xe
	.uleb128 0x18
	.byte	0x4
	.4byte	.LCFI19-.LCFI18
	.byte	0xe
	.uleb128 0x4
	.align	2
.LEFDE20:
.LSFDE22:
	.4byte	.LEFDE22-.LASFDE22
.LASFDE22:
	.4byte	.Lframe0
	.4byte	.LFB11
	.4byte	.LFE11-.LFB11
	.byte	0x4
	.4byte	.LCFI20-.LFB11
	.byte	0xe
	.uleb128 0x8
	.byte	0x83
	.uleb128 0x2
	.byte	0x8e
	.uleb128 0x1
	.align	2
.LEFDE22:
.LSFDE24:
	.4byte	.LEFDE24-.LASFDE24
.LASFDE24:
	.4byte	.Lframe0
	.4byte	.LFB12
	.4byte	.LFE12-.LFB12
	.byte	0x4
	.4byte	.LCFI21-.LFB12
	.byte	0xe
	.uleb128 0x8
	.byte	0x83
	.uleb128 0x2
	.byte	0x8e
	.uleb128 0x1
	.align	2
.LEFDE24:
.LSFDE26:
	.4byte	.LEFDE26-.LASFDE26
.LASFDE26:
	.4byte	.Lframe0
	.4byte	.LFB13
	.4byte	.LFE13-.LFB13
	.byte	0x4
	.4byte	.LCFI22-.LFB13
	.byte	0xe
	.uleb128 0x4
	.byte	0x8e
	.uleb128 0x1
	.byte	0x4
	.4byte	.LCFI23-.LCFI22
	.byte	0xe
	.uleb128 0x10
	.byte	0x4
	.4byte	.LCFI24-.LCFI23
	.byte	0xe
	.uleb128 0x4
	.align	2
.LEFDE26:
.LSFDE28:
	.4byte	.LEFDE28-.LASFDE28
.LASFDE28:
	.4byte	.Lframe0
	.4byte	.LFB14
	.4byte	.LFE14-.LFB14
	.align	2
.LEFDE28:
.LSFDE30:
	.4byte	.LEFDE30-.LASFDE30
.LASFDE30:
	.4byte	.Lframe0
	.4byte	.LFB15
	.4byte	.LFE15-.LFB15
	.byte	0x4
	.4byte	.LCFI25-.LFB15
	.byte	0xe
	.uleb128 0x8
	.byte	0x4
	.4byte	.LCFI26-.LCFI25
	.byte	0xe
	.uleb128 0
	.align	2
.LEFDE30:
.LSFDE32:
	.4byte	.LEFDE32-.LASFDE32
.LASFDE32:
	.4byte	.Lframe0
	.4byte	.LFB16
	.4byte	.LFE16-.LFB16
	.byte	0x4
	.4byte	.LCFI27-.LFB16
	.byte	0xe
	.uleb128 0x4
	.byte	0x8e
	.uleb128 0x1
	.byte	0x4
	.4byte	.LCFI28-.LCFI27
	.byte	0xe
	.uleb128 0x10
	.byte	0x4
	.4byte	.LCFI29-.LCFI28
	.byte	0xe
	.uleb128 0x4
	.align	2
.LEFDE32:
.LSFDE34:
	.4byte	.LEFDE34-.LASFDE34
.LASFDE34:
	.4byte	.Lframe0
	.4byte	.LFB17
	.4byte	.LFE17-.LFB17
	.byte	0x4
	.4byte	.LCFI30-.LFB17
	.byte	0xe
	.uleb128 0x4
	.byte	0x8e
	.uleb128 0x1
	.byte	0x4
	.4byte	.LCFI31-.LCFI30
	.byte	0xe
	.uleb128 0x10
	.byte	0x4
	.4byte	.LCFI32-.LCFI31
	.byte	0xe
	.uleb128 0x4
	.align	2
.LEFDE34:
.LSFDE36:
	.4byte	.LEFDE36-.LASFDE36
.LASFDE36:
	.4byte	.Lframe0
	.4byte	.LFB18
	.4byte	.LFE18-.LFB18
	.byte	0x4
	.4byte	.LCFI33-.LFB18
	.byte	0xe
	.uleb128 0x4
	.byte	0x8e
	.uleb128 0x1
	.byte	0x4
	.4byte	.LCFI34-.LCFI33
	.byte	0xe
	.uleb128 0x28
	.byte	0x4
	.4byte	.LCFI35-.LCFI34
	.byte	0xe
	.uleb128 0x4
	.align	2
.LEFDE36:
.LSFDE38:
	.4byte	.LEFDE38-.LASFDE38
.LASFDE38:
	.4byte	.Lframe0
	.4byte	.LFB19
	.4byte	.LFE19-.LFB19
	.byte	0x4
	.4byte	.LCFI36-.LFB19
	.byte	0xe
	.uleb128 0x4
	.byte	0x8e
	.uleb128 0x1
	.byte	0x4
	.4byte	.LCFI37-.LCFI36
	.byte	0xe
	.uleb128 0x10
	.byte	0x4
	.4byte	.LCFI38-.LCFI37
	.byte	0xe
	.uleb128 0x4
	.align	2
.LEFDE38:
.LSFDE40:
	.4byte	.LEFDE40-.LASFDE40
.LASFDE40:
	.4byte	.Lframe0
	.4byte	.LFB20
	.4byte	.LFE20-.LFB20
	.byte	0x4
	.4byte	.LCFI39-.LFB20
	.byte	0xe
	.uleb128 0x8
	.byte	0x83
	.uleb128 0x2
	.byte	0x8e
	.uleb128 0x1
	.align	2
.LEFDE40:
.LSFDE42:
	.4byte	.LEFDE42-.LASFDE42
.LASFDE42:
	.4byte	.Lframe0
	.4byte	.LFB21
	.4byte	.LFE21-.LFB21
	.byte	0x4
	.4byte	.LCFI40-.LFB21
	.byte	0xe
	.uleb128 0x8
	.byte	0x83
	.uleb128 0x2
	.byte	0x8e
	.uleb128 0x1
	.align	2
.LEFDE42:
.LSFDE44:
	.4byte	.LEFDE44-.LASFDE44
.LASFDE44:
	.4byte	.Lframe0
	.4byte	.LFB22
	.4byte	.LFE22-.LFB22
	.align	2
.LEFDE44:
.LSFDE46:
	.4byte	.LEFDE46-.LASFDE46
.LASFDE46:
	.4byte	.Lframe0
	.4byte	.LFB23
	.4byte	.LFE23-.LFB23
	.byte	0x4
	.4byte	.LCFI41-.LFB23
	.byte	0xe
	.uleb128 0x4
	.byte	0x8e
	.uleb128 0x1
	.byte	0x4
	.4byte	.LCFI42-.LCFI41
	.byte	0xe
	.uleb128 0x10
	.byte	0x4
	.4byte	.LCFI43-.LCFI42
	.byte	0xe
	.uleb128 0x4
	.align	2
.LEFDE46:
.LSFDE48:
	.4byte	.LEFDE48-.LASFDE48
.LASFDE48:
	.4byte	.Lframe0
	.4byte	.LFB24
	.4byte	.LFE24-.LFB24
	.byte	0x4
	.4byte	.LCFI44-.LFB24
	.byte	0xe
	.uleb128 0x4
	.byte	0x8e
	.uleb128 0x1
	.byte	0x4
	.4byte	.LCFI45-.LCFI44
	.byte	0xe
	.uleb128 0x10
	.byte	0x4
	.4byte	.LCFI46-.LCFI45
	.byte	0xe
	.uleb128 0x4
	.align	2
.LEFDE48:
.LSFDE50:
	.4byte	.LEFDE50-.LASFDE50
.LASFDE50:
	.4byte	.Lframe0
	.4byte	.LFB25
	.4byte	.LFE25-.LFB25
	.byte	0x4
	.4byte	.LCFI47-.LFB25
	.byte	0xe
	.uleb128 0x4
	.byte	0x8e
	.uleb128 0x1
	.byte	0x4
	.4byte	.LCFI48-.LCFI47
	.byte	0xe
	.uleb128 0x10
	.byte	0x4
	.4byte	.LCFI49-.LCFI48
	.byte	0xe
	.uleb128 0x4
	.align	2
.LEFDE50:
.LSFDE52:
	.4byte	.LEFDE52-.LASFDE52
.LASFDE52:
	.4byte	.Lframe0
	.4byte	.LFB26
	.4byte	.LFE26-.LFB26
	.byte	0x4
	.4byte	.LCFI50-.LFB26
	.byte	0xe
	.uleb128 0x4
	.byte	0x8e
	.uleb128 0x1
	.byte	0x4
	.4byte	.LCFI51-.LCFI50
	.byte	0xe
	.uleb128 0x10
	.byte	0x4
	.4byte	.LCFI52-.LCFI51
	.byte	0xe
	.uleb128 0x4
	.align	2
.LEFDE52:
.LSFDE54:
	.4byte	.LEFDE54-.LASFDE54
.LASFDE54:
	.4byte	.Lframe0
	.4byte	.LFB27
	.4byte	.LFE27-.LFB27
	.byte	0x4
	.4byte	.LCFI53-.LFB27
	.byte	0xe
	.uleb128 0x4
	.byte	0x8e
	.uleb128 0x1
	.byte	0x4
	.4byte	.LCFI54-.LCFI53
	.byte	0xe
	.uleb128 0x10
	.byte	0x4
	.4byte	.LCFI55-.LCFI54
	.byte	0xe
	.uleb128 0x4
	.align	2
.LEFDE54:
.LSFDE56:
	.4byte	.LEFDE56-.LASFDE56
.LASFDE56:
	.4byte	.Lframe0
	.4byte	.LFB28
	.4byte	.LFE28-.LFB28
	.byte	0x4
	.4byte	.LCFI56-.LFB28
	.byte	0xe
	.uleb128 0x4
	.byte	0x8e
	.uleb128 0x1
	.byte	0x4
	.4byte	.LCFI57-.LCFI56
	.byte	0xe
	.uleb128 0x18
	.byte	0x4
	.4byte	.LCFI58-.LCFI57
	.byte	0xe
	.uleb128 0x4
	.align	2
.LEFDE56:
.LSFDE58:
	.4byte	.LEFDE58-.LASFDE58
.LASFDE58:
	.4byte	.Lframe0
	.4byte	.LFB29
	.4byte	.LFE29-.LFB29
	.byte	0x4
	.4byte	.LCFI59-.LFB29
	.byte	0xe
	.uleb128 0xc
	.byte	0x84
	.uleb128 0x3
	.byte	0x85
	.uleb128 0x2
	.byte	0x8e
	.uleb128 0x1
	.byte	0x4
	.4byte	.LCFI60-.LCFI59
	.byte	0xe
	.uleb128 0x20
	.byte	0x4
	.4byte	.LCFI61-.LCFI60
	.byte	0xe
	.uleb128 0xc
	.align	2
.LEFDE58:
.LSFDE60:
	.4byte	.LEFDE60-.LASFDE60
.LASFDE60:
	.4byte	.Lframe0
	.4byte	.LFB30
	.4byte	.LFE30-.LFB30
	.byte	0x4
	.4byte	.LCFI62-.LFB30
	.byte	0xe
	.uleb128 0x4
	.byte	0x8e
	.uleb128 0x1
	.byte	0x4
	.4byte	.LCFI63-.LCFI62
	.byte	0xe
	.uleb128 0x18
	.byte	0x4
	.4byte	.LCFI64-.LCFI63
	.byte	0xe
	.uleb128 0x4
	.align	2
.LEFDE60:
.LSFDE62:
	.4byte	.LEFDE62-.LASFDE62
.LASFDE62:
	.4byte	.Lframe0
	.4byte	.LFB31
	.4byte	.LFE31-.LFB31
	.byte	0x4
	.4byte	.LCFI65-.LFB31
	.byte	0xe
	.uleb128 0x4
	.byte	0x8e
	.uleb128 0x1
	.byte	0x4
	.4byte	.LCFI66-.LCFI65
	.byte	0xe
	.uleb128 0x18
	.byte	0x4
	.4byte	.LCFI67-.LCFI66
	.byte	0xe
	.uleb128 0x4
	.align	2
.LEFDE62:
.LSFDE64:
	.4byte	.LEFDE64-.LASFDE64
.LASFDE64:
	.4byte	.Lframe0
	.4byte	.LFB32
	.4byte	.LFE32-.LFB32
	.align	2
.LEFDE64:
.LSFDE66:
	.4byte	.LEFDE66-.LASFDE66
.LASFDE66:
	.4byte	.Lframe0
	.4byte	.LFB33
	.4byte	.LFE33-.LFB33
	.byte	0x4
	.4byte	.LCFI68-.LFB33
	.byte	0xe
	.uleb128 0x8
	.byte	0x84
	.uleb128 0x2
	.byte	0x8e
	.uleb128 0x1
	.byte	0x4
	.4byte	.LCFI69-.LCFI68
	.byte	0xe
	.uleb128 0x98
	.byte	0x4
	.4byte	.LCFI70-.LCFI69
	.byte	0xe
	.uleb128 0x8
	.align	2
.LEFDE66:
.LSFDE68:
	.4byte	.LEFDE68-.LASFDE68
.LASFDE68:
	.4byte	.Lframe0
	.4byte	.LFB34
	.4byte	.LFE34-.LFB34
	.byte	0x4
	.4byte	.LCFI71-.LFB34
	.byte	0xe
	.uleb128 0x4
	.byte	0x8e
	.uleb128 0x1
	.byte	0x4
	.4byte	.LCFI72-.LCFI71
	.byte	0xe
	.uleb128 0x40
	.byte	0x4
	.4byte	.LCFI73-.LCFI72
	.byte	0xe
	.uleb128 0x4
	.align	2
.LEFDE68:
.LSFDE70:
	.4byte	.LEFDE70-.LASFDE70
.LASFDE70:
	.4byte	.Lframe0
	.4byte	.LFB35
	.4byte	.LFE35-.LFB35
	.byte	0x4
	.4byte	.LCFI74-.LFB35
	.byte	0xe
	.uleb128 0x4
	.byte	0x8e
	.uleb128 0x1
	.byte	0x4
	.4byte	.LCFI75-.LCFI74
	.byte	0xe
	.uleb128 0x18
	.byte	0x4
	.4byte	.LCFI76-.LCFI75
	.byte	0xe
	.uleb128 0x4
	.align	2
.LEFDE70:
.LSFDE72:
	.4byte	.LEFDE72-.LASFDE72
.LASFDE72:
	.4byte	.Lframe0
	.4byte	.LFB36
	.4byte	.LFE36-.LFB36
	.byte	0x4
	.4byte	.LCFI77-.LFB36
	.byte	0xe
	.uleb128 0x8
	.byte	0x83
	.uleb128 0x2
	.byte	0x8e
	.uleb128 0x1
	.align	2
.LEFDE72:
.LSFDE74:
	.4byte	.LEFDE74-.LASFDE74
.LASFDE74:
	.4byte	.Lframe0
	.4byte	.LFB37
	.4byte	.LFE37-.LFB37
	.byte	0x4
	.4byte	.LCFI78-.LFB37
	.byte	0xe
	.uleb128 0x8
	.byte	0x84
	.uleb128 0x2
	.byte	0x8e
	.uleb128 0x1
	.byte	0x4
	.4byte	.LCFI79-.LCFI78
	.byte	0xe
	.uleb128 0x30
	.byte	0x4
	.4byte	.LCFI80-.LCFI79
	.byte	0xe
	.uleb128 0x8
	.align	2
.LEFDE74:
.LSFDE76:
	.4byte	.LEFDE76-.LASFDE76
.LASFDE76:
	.4byte	.Lframe0
	.4byte	.LFB38
	.4byte	.LFE38-.LFB38
	.byte	0x4
	.4byte	.LCFI81-.LFB38
	.byte	0xe
	.uleb128 0x4
	.byte	0x8e
	.uleb128 0x1
	.byte	0x4
	.4byte	.LCFI82-.LCFI81
	.byte	0xe
	.uleb128 0x18
	.byte	0x4
	.4byte	.LCFI83-.LCFI82
	.byte	0xe
	.uleb128 0x4
	.align	2
.LEFDE76:
.LSFDE78:
	.4byte	.LEFDE78-.LASFDE78
.LASFDE78:
	.4byte	.Lframe0
	.4byte	.LFB39
	.4byte	.LFE39-.LFB39
	.byte	0x4
	.4byte	.LCFI84-.LFB39
	.byte	0xe
	.uleb128 0x4
	.byte	0x8e
	.uleb128 0x1
	.byte	0x4
	.4byte	.LCFI85-.LCFI84
	.byte	0xe
	.uleb128 0x38
	.byte	0x4
	.4byte	.LCFI86-.LCFI85
	.byte	0xe
	.uleb128 0x4
	.align	2
.LEFDE78:
.LSFDE80:
	.4byte	.LEFDE80-.LASFDE80
.LASFDE80:
	.4byte	.Lframe0
	.4byte	.LFB40
	.4byte	.LFE40-.LFB40
	.byte	0x4
	.4byte	.LCFI87-.LFB40
	.byte	0xe
	.uleb128 0x4
	.byte	0x8e
	.uleb128 0x1
	.byte	0x4
	.4byte	.LCFI88-.LCFI87
	.byte	0xe
	.uleb128 0x10
	.byte	0x4
	.4byte	.LCFI89-.LCFI88
	.byte	0xe
	.uleb128 0x4
	.align	2
.LEFDE80:
.LSFDE82:
	.4byte	.LEFDE82-.LASFDE82
.LASFDE82:
	.4byte	.Lframe0
	.4byte	.LFB41
	.4byte	.LFE41-.LFB41
	.byte	0x4
	.4byte	.LCFI90-.LFB41
	.byte	0xe
	.uleb128 0xc
	.byte	0x84
	.uleb128 0x3
	.byte	0x85
	.uleb128 0x2
	.byte	0x8e
	.uleb128 0x1
	.byte	0x4
	.4byte	.LCFI91-.LCFI90
	.byte	0xe
	.uleb128 0x18
	.byte	0x4
	.4byte	.LCFI92-.LCFI91
	.byte	0xe
	.uleb128 0xc
	.align	2
.LEFDE82:
.LSFDE84:
	.4byte	.LEFDE84-.LASFDE84
.LASFDE84:
	.4byte	.Lframe0
	.4byte	.LFB42
	.4byte	.LFE42-.LFB42
	.byte	0x4
	.4byte	.LCFI93-.LFB42
	.byte	0xe
	.uleb128 0x4
	.byte	0x8e
	.uleb128 0x1
	.byte	0x4
	.4byte	.LCFI94-.LCFI93
	.byte	0xe
	.uleb128 0x10
	.byte	0x4
	.4byte	.LCFI95-.LCFI94
	.byte	0xe
	.uleb128 0x4
	.align	2
.LEFDE84:
.LSFDE86:
	.4byte	.LEFDE86-.LASFDE86
.LASFDE86:
	.4byte	.Lframe0
	.4byte	.LFB43
	.4byte	.LFE43-.LFB43
	.byte	0x4
	.4byte	.LCFI96-.LFB43
	.byte	0xe
	.uleb128 0x8
	.byte	0x84
	.uleb128 0x2
	.byte	0x8e
	.uleb128 0x1
	.byte	0x4
	.4byte	.LCFI97-.LCFI96
	.byte	0xe
	.uleb128 0x10
	.byte	0x4
	.4byte	.LCFI98-.LCFI97
	.byte	0xe
	.uleb128 0x8
	.align	2
.LEFDE86:
.LSFDE88:
	.4byte	.LEFDE88-.LASFDE88
.LASFDE88:
	.4byte	.Lframe0
	.4byte	.LFB44
	.4byte	.LFE44-.LFB44
	.byte	0x4
	.4byte	.LCFI99-.LFB44
	.byte	0xe
	.uleb128 0x4
	.byte	0x8e
	.uleb128 0x1
	.byte	0x4
	.4byte	.LCFI100-.LCFI99
	.byte	0xe
	.uleb128 0x28
	.byte	0x4
	.4byte	.LCFI101-.LCFI100
	.byte	0xe
	.uleb128 0x4
	.align	2
.LEFDE88:
.LSFDE90:
	.4byte	.LEFDE90-.LASFDE90
.LASFDE90:
	.4byte	.Lframe0
	.4byte	.LFB45
	.4byte	.LFE45-.LFB45
	.byte	0x4
	.4byte	.LCFI102-.LFB45
	.byte	0xe
	.uleb128 0x4
	.byte	0x8e
	.uleb128 0x1
	.byte	0x4
	.4byte	.LCFI103-.LCFI102
	.byte	0xe
	.uleb128 0x28
	.byte	0x4
	.4byte	.LCFI104-.LCFI103
	.byte	0xe
	.uleb128 0x4
	.align	2
.LEFDE90:
.LSFDE92:
	.4byte	.LEFDE92-.LASFDE92
.LASFDE92:
	.4byte	.Lframe0
	.4byte	.LFB46
	.4byte	.LFE46-.LFB46
	.byte	0x4
	.4byte	.LCFI105-.LFB46
	.byte	0xe
	.uleb128 0x4
	.byte	0x8e
	.uleb128 0x1
	.byte	0x4
	.4byte	.LCFI106-.LCFI105
	.byte	0xe
	.uleb128 0x20
	.byte	0x4
	.4byte	.LCFI107-.LCFI106
	.byte	0xe
	.uleb128 0x4
	.align	2
.LEFDE92:
.LSFDE94:
	.4byte	.LEFDE94-.LASFDE94
.LASFDE94:
	.4byte	.Lframe0
	.4byte	.LFB47
	.4byte	.LFE47-.LFB47
	.byte	0x4
	.4byte	.LCFI108-.LFB47
	.byte	0xe
	.uleb128 0x4
	.byte	0x8e
	.uleb128 0x1
	.byte	0x4
	.4byte	.LCFI109-.LCFI108
	.byte	0xe
	.uleb128 0x10
	.byte	0x4
	.4byte	.LCFI110-.LCFI109
	.byte	0xe
	.uleb128 0x4
	.align	2
.LEFDE94:
.LSFDE96:
	.4byte	.LEFDE96-.LASFDE96
.LASFDE96:
	.4byte	.Lframe0
	.4byte	.LFB48
	.4byte	.LFE48-.LFB48
	.byte	0x4
	.4byte	.LCFI111-.LFB48
	.byte	0xe
	.uleb128 0x4
	.byte	0x8e
	.uleb128 0x1
	.byte	0x4
	.4byte	.LCFI112-.LCFI111
	.byte	0xe
	.uleb128 0x10
	.byte	0x4
	.4byte	.LCFI113-.LCFI112
	.byte	0xe
	.uleb128 0x4
	.align	2
.LEFDE96:
.LSFDE98:
	.4byte	.LEFDE98-.LASFDE98
.LASFDE98:
	.4byte	.Lframe0
	.4byte	.LFB49
	.4byte	.LFE49-.LFB49
	.byte	0x4
	.4byte	.LCFI114-.LFB49
	.byte	0xe
	.uleb128 0x4
	.byte	0x8e
	.uleb128 0x1
	.byte	0x4
	.4byte	.LCFI115-.LCFI114
	.byte	0xe
	.uleb128 0x18
	.byte	0x4
	.4byte	.LCFI116-.LCFI115
	.byte	0xe
	.uleb128 0x4
	.align	2
.LEFDE98:
.LSFDE100:
	.4byte	.LEFDE100-.LASFDE100
.LASFDE100:
	.4byte	.Lframe0
	.4byte	.LFB50
	.4byte	.LFE50-.LFB50
	.byte	0x4
	.4byte	.LCFI117-.LFB50
	.byte	0xe
	.uleb128 0x8
	.byte	0x4
	.4byte	.LCFI118-.LCFI117
	.byte	0xe
	.uleb128 0
	.align	2
.LEFDE100:
.LSFDE102:
	.4byte	.LEFDE102-.LASFDE102
.LASFDE102:
	.4byte	.Lframe0
	.4byte	.LFB51
	.4byte	.LFE51-.LFB51
	.align	2
.LEFDE102:
.LSFDE104:
	.4byte	.LEFDE104-.LASFDE104
.LASFDE104:
	.4byte	.Lframe0
	.4byte	.LFB52
	.4byte	.LFE52-.LFB52
	.align	2
.LEFDE104:
.LSFDE106:
	.4byte	.LEFDE106-.LASFDE106
.LASFDE106:
	.4byte	.Lframe0
	.4byte	.LFB53
	.4byte	.LFE53-.LFB53
	.align	2
.LEFDE106:
.LSFDE108:
	.4byte	.LEFDE108-.LASFDE108
.LASFDE108:
	.4byte	.Lframe0
	.4byte	.LFB54
	.4byte	.LFE54-.LFB54
	.byte	0x4
	.4byte	.LCFI119-.LFB54
	.byte	0xe
	.uleb128 0x4
	.byte	0x8e
	.uleb128 0x1
	.byte	0x4
	.4byte	.LCFI120-.LCFI119
	.byte	0xe
	.uleb128 0x10
	.byte	0x4
	.4byte	.LCFI121-.LCFI120
	.byte	0xe
	.uleb128 0x4
	.align	2
.LEFDE108:
.LSFDE110:
	.4byte	.LEFDE110-.LASFDE110
.LASFDE110:
	.4byte	.Lframe0
	.4byte	.LFB55
	.4byte	.LFE55-.LFB55
	.byte	0x4
	.4byte	.LCFI122-.LFB55
	.byte	0xe
	.uleb128 0x4
	.byte	0x8e
	.uleb128 0x1
	.byte	0x4
	.4byte	.LCFI123-.LCFI122
	.byte	0xe
	.uleb128 0x10
	.byte	0x4
	.4byte	.LCFI124-.LCFI123
	.byte	0xe
	.uleb128 0x4
	.align	2
.LEFDE110:
.LSFDE112:
	.4byte	.LEFDE112-.LASFDE112
.LASFDE112:
	.4byte	.Lframe0
	.4byte	.LFB56
	.4byte	.LFE56-.LFB56
	.byte	0x4
	.4byte	.LCFI125-.LFB56
	.byte	0xe
	.uleb128 0x4
	.byte	0x8e
	.uleb128 0x1
	.byte	0x4
	.4byte	.LCFI126-.LCFI125
	.byte	0xe
	.uleb128 0x10
	.byte	0x4
	.4byte	.LCFI127-.LCFI126
	.byte	0xe
	.uleb128 0x4
	.align	2
.LEFDE112:
.LSFDE114:
	.4byte	.LEFDE114-.LASFDE114
.LASFDE114:
	.4byte	.Lframe0
	.4byte	.LFB57
	.4byte	.LFE57-.LFB57
	.byte	0x4
	.4byte	.LCFI128-.LFB57
	.byte	0xe
	.uleb128 0x8
	.byte	0x83
	.uleb128 0x2
	.byte	0x8e
	.uleb128 0x1
	.align	2
.LEFDE114:
.LSFDE116:
	.4byte	.LEFDE116-.LASFDE116
.LASFDE116:
	.4byte	.Lframe0
	.4byte	.LFB58
	.4byte	.LFE58-.LFB58
	.byte	0x4
	.4byte	.LCFI129-.LFB58
	.byte	0xe
	.uleb128 0x8
	.byte	0x83
	.uleb128 0x2
	.byte	0x8e
	.uleb128 0x1
	.align	2
.LEFDE116:
.LSFDE118:
	.4byte	.LEFDE118-.LASFDE118
.LASFDE118:
	.4byte	.Lframe0
	.4byte	.LFB59
	.4byte	.LFE59-.LFB59
	.byte	0x4
	.4byte	.LCFI130-.LFB59
	.byte	0xe
	.uleb128 0x8
	.byte	0x83
	.uleb128 0x2
	.byte	0x8e
	.uleb128 0x1
	.align	2
.LEFDE118:
.LSFDE120:
	.4byte	.LEFDE120-.LASFDE120
.LASFDE120:
	.4byte	.Lframe0
	.4byte	.LFB60
	.4byte	.LFE60-.LFB60
	.byte	0x4
	.4byte	.LCFI131-.LFB60
	.byte	0xe
	.uleb128 0x8
	.byte	0x83
	.uleb128 0x2
	.byte	0x8e
	.uleb128 0x1
	.align	2
.LEFDE120:
.LSFDE122:
	.4byte	.LEFDE122-.LASFDE122
.LASFDE122:
	.4byte	.Lframe0
	.4byte	.LFB61
	.4byte	.LFE61-.LFB61
	.byte	0x4
	.4byte	.LCFI132-.LFB61
	.byte	0xe
	.uleb128 0x8
	.byte	0x83
	.uleb128 0x2
	.byte	0x8e
	.uleb128 0x1
	.align	2
.LEFDE122:
.LSFDE124:
	.4byte	.LEFDE124-.LASFDE124
.LASFDE124:
	.4byte	.Lframe0
	.4byte	.LFB62
	.4byte	.LFE62-.LFB62
	.byte	0x4
	.4byte	.LCFI133-.LFB62
	.byte	0xe
	.uleb128 0x8
	.byte	0x83
	.uleb128 0x2
	.byte	0x8e
	.uleb128 0x1
	.align	2
.LEFDE124:
.LSFDE126:
	.4byte	.LEFDE126-.LASFDE126
.LASFDE126:
	.4byte	.Lframe0
	.4byte	.LFB63
	.4byte	.LFE63-.LFB63
	.byte	0x4
	.4byte	.LCFI134-.LFB63
	.byte	0xe
	.uleb128 0x8
	.byte	0x83
	.uleb128 0x2
	.byte	0x8e
	.uleb128 0x1
	.align	2
.LEFDE126:
.LSFDE128:
	.4byte	.LEFDE128-.LASFDE128
.LASFDE128:
	.4byte	.Lframe0
	.4byte	.LFB64
	.4byte	.LFE64-.LFB64
	.align	2
.LEFDE128:
.LSFDE130:
	.4byte	.LEFDE130-.LASFDE130
.LASFDE130:
	.4byte	.Lframe0
	.4byte	.LFB65
	.4byte	.LFE65-.LFB65
	.byte	0x4
	.4byte	.LCFI135-.LFB65
	.byte	0xe
	.uleb128 0x8
	.byte	0x84
	.uleb128 0x2
	.byte	0x8e
	.uleb128 0x1
	.byte	0x4
	.4byte	.LCFI136-.LCFI135
	.byte	0xe
	.uleb128 0x60
	.byte	0x4
	.4byte	.LCFI137-.LCFI136
	.byte	0xe
	.uleb128 0x8
	.align	2
.LEFDE130:
.LSFDE132:
	.4byte	.LEFDE132-.LASFDE132
.LASFDE132:
	.4byte	.Lframe0
	.4byte	.LFB66
	.4byte	.LFE66-.LFB66
	.align	2
.LEFDE132:
.LSFDE134:
	.4byte	.LEFDE134-.LASFDE134
.LASFDE134:
	.4byte	.Lframe0
	.4byte	.LFB67
	.4byte	.LFE67-.LFB67
	.byte	0x4
	.4byte	.LCFI138-.LFB67
	.byte	0xe
	.uleb128 0x8
	.byte	0x83
	.uleb128 0x2
	.byte	0x8e
	.uleb128 0x1
	.align	2
.LEFDE134:
.LSFDE136:
	.4byte	.LEFDE136-.LASFDE136
.LASFDE136:
	.4byte	.Lframe0
	.4byte	.LFB68
	.4byte	.LFE68-.LFB68
	.byte	0x4
	.4byte	.LCFI139-.LFB68
	.byte	0xe
	.uleb128 0x4
	.byte	0x8e
	.uleb128 0x1
	.byte	0x4
	.4byte	.LCFI140-.LCFI139
	.byte	0xe
	.uleb128 0x30
	.byte	0x4
	.4byte	.LCFI141-.LCFI140
	.byte	0xe
	.uleb128 0x4
	.align	2
.LEFDE136:
.LSFDE138:
	.4byte	.LEFDE138-.LASFDE138
.LASFDE138:
	.4byte	.Lframe0
	.4byte	.LFB69
	.4byte	.LFE69-.LFB69
	.byte	0x4
	.4byte	.LCFI142-.LFB69
	.byte	0xe
	.uleb128 0x4
	.byte	0x8e
	.uleb128 0x1
	.byte	0x4
	.4byte	.LCFI143-.LCFI142
	.byte	0xe
	.uleb128 0x20
	.byte	0x4
	.4byte	.LCFI144-.LCFI143
	.byte	0xe
	.uleb128 0x4
	.align	2
.LEFDE138:
.LSFDE140:
	.4byte	.LEFDE140-.LASFDE140
.LASFDE140:
	.4byte	.Lframe0
	.4byte	.LFB70
	.4byte	.LFE70-.LFB70
	.byte	0x4
	.4byte	.LCFI145-.LFB70
	.byte	0xe
	.uleb128 0x4
	.byte	0x8e
	.uleb128 0x1
	.byte	0x4
	.4byte	.LCFI146-.LCFI145
	.byte	0xe
	.uleb128 0x20
	.byte	0x4
	.4byte	.LCFI147-.LCFI146
	.byte	0xe
	.uleb128 0x4
	.align	2
.LEFDE140:
.LSFDE142:
	.4byte	.LEFDE142-.LASFDE142
.LASFDE142:
	.4byte	.Lframe0
	.4byte	.LFB71
	.4byte	.LFE71-.LFB71
	.byte	0x4
	.4byte	.LCFI148-.LFB71
	.byte	0xe
	.uleb128 0x8
	.byte	0x84
	.uleb128 0x2
	.byte	0x8e
	.uleb128 0x1
	.byte	0x4
	.4byte	.LCFI149-.LCFI148
	.byte	0xe
	.uleb128 0x20
	.byte	0x4
	.4byte	.LCFI150-.LCFI149
	.byte	0xe
	.uleb128 0x8
	.align	2
.LEFDE142:
.LSFDE144:
	.4byte	.LEFDE144-.LASFDE144
.LASFDE144:
	.4byte	.Lframe0
	.4byte	.LFB72
	.4byte	.LFE72-.LFB72
	.byte	0x4
	.4byte	.LCFI151-.LFB72
	.byte	0xe
	.uleb128 0x4
	.byte	0x8e
	.uleb128 0x1
	.byte	0x4
	.4byte	.LCFI152-.LCFI151
	.byte	0xe
	.uleb128 0x18
	.byte	0x4
	.4byte	.LCFI153-.LCFI152
	.byte	0xe
	.uleb128 0x4
	.align	2
.LEFDE144:
.LSFDE146:
	.4byte	.LEFDE146-.LASFDE146
.LASFDE146:
	.4byte	.Lframe0
	.4byte	.LFB73
	.4byte	.LFE73-.LFB73
	.byte	0x4
	.4byte	.LCFI154-.LFB73
	.byte	0xe
	.uleb128 0xc
	.byte	0x84
	.uleb128 0x3
	.byte	0x85
	.uleb128 0x2
	.byte	0x8e
	.uleb128 0x1
	.byte	0x4
	.4byte	.LCFI155-.LCFI154
	.byte	0xe
	.uleb128 0x20
	.byte	0x4
	.4byte	.LCFI156-.LCFI155
	.byte	0xe
	.uleb128 0xc
	.align	2
.LEFDE146:
.LSFDE148:
	.4byte	.LEFDE148-.LASFDE148
.LASFDE148:
	.4byte	.Lframe0
	.4byte	.LFB74
	.4byte	.LFE74-.LFB74
	.byte	0x4
	.4byte	.LCFI157-.LFB74
	.byte	0xe
	.uleb128 0xc
	.byte	0x84
	.uleb128 0x3
	.byte	0x85
	.uleb128 0x2
	.byte	0x8e
	.uleb128 0x1
	.byte	0x4
	.4byte	.LCFI158-.LCFI157
	.byte	0xe
	.uleb128 0x38
	.byte	0x4
	.4byte	.LCFI159-.LCFI158
